
 Start         Length     Name                   Class
 0001:00000000 0005BDD8H .text                   CODE
 0002:00000000 0000055CH .data                   DATA
 0002:0000055C 00000215H .bss                    BSS


Detailed map of segments

 0001:00000000 0000039E C=CODE     S=.text    G=(none)   M=System   ACBP=A9
 0001:000003A0 000001EC C=CODE     S=.text    G=(none)   M=SysInit  ACBP=A9
 0001:0000058C 00000290 C=CODE     S=.text    G=(none)   M=DsnConst ACBP=A9
 0001:0000081C 00000378 C=CODE     S=.text    G=(none)   M=Windows  ACBP=A9
 0001:00000B94 0000001E C=CODE     S=.text    G=(none)   M=Types    ACBP=A9
 0001:00000BB4 0000001E C=CODE     S=.text    G=(none)   M=ActiveX  ACBP=A9
 0001:00000BD4 00000038 C=CODE     S=.text    G=(none)   M=Messages ACBP=A9
 0001:00000C0C 0000017E C=CODE     S=.text    G=(none)   M=SysUtils ACBP=A9
 0001:00000D8C 0000000E C=CODE     S=.text    G=(none)   M=SysConst ACBP=A9
 0001:00000D9C 0000059E C=CODE     S=.text    G=(none)   M=Classes  ACBP=A9
 0001:0000133C 000000FE C=CODE     S=.text    G=(none)   M=TypInfo  ACBP=A9
 0001:0000143C 0000002E C=CODE     S=.text    G=(none)   M=Variants ACBP=A9
 0001:0000146C 0000000E C=CODE     S=.text    G=(none)   M=VarUtils ACBP=A9
 0001:0000147C 0000000E C=CODE     S=.text    G=(none)   M=RTLConsts ACBP=A9
 0001:0000148C 000001E4 C=CODE     S=.text    G=(none)   M=VirtIntf ACBP=A9
 0001:00001670 0000002E C=CODE     S=.text    G=(none)   M=AxCtrls  ACBP=A9
 0001:000016A0 00000196 C=CODE     S=.text    G=(none)   M=Menus    ACBP=A9
 0001:00001838 000000DE C=CODE     S=.text    G=(none)   M=ActnList ACBP=A9
 0001:00001918 00000086 C=CODE     S=.text    G=(none)   M=Contnrs  ACBP=A9
 0001:000019A0 00000016 C=CODE     S=.text    G=(none)   M=Math     ACBP=A9
 0001:000019B8 00000036 C=CODE     S=.text    G=(none)   M=ImgList  ACBP=A9
 0001:000019F0 00000040 C=CODE     S=.text    G=(none)   M=CommCtrl ACBP=A9
 0001:00001A30 000001F6 C=CODE     S=.text    G=(none)   M=Graphics ACBP=A9
 0001:00001C28 0000000E C=CODE     S=.text    G=(none)   M=Consts   ACBP=A9
 0001:00001C38 000002BE C=CODE     S=.text    G=(none)   M=Forms    ACBP=A9
 0001:00001EF8 0000000E C=CODE     S=.text    G=(none)   M=HelpIntfs ACBP=A9
 0001:00001F08 0000000E C=CODE     S=.text    G=(none)   M=MultiMon ACBP=A9
 0001:00001F18 0000059E C=CODE     S=.text    G=(none)   M=Controls ACBP=A9
 0001:000024B8 00000038 C=CODE     S=.text    G=(none)   M=Imm      ACBP=A9
 0001:000024F0 0000000E C=CODE     S=.text    G=(none)   M=WinHelpViewer ACBP=A9
 0001:00002500 0000000E C=CODE     S=.text    G=(none)   M=StdActns ACBP=A9
 0001:00002510 0000004E C=CODE     S=.text    G=(none)   M=Dialogs  ACBP=A9
 0001:00002560 00000038 C=CODE     S=.text    G=(none)   M=ShlObj   ACBP=A9
 0001:00002598 00000038 C=CODE     S=.text    G=(none)   M=UrlMon   ACBP=A9
 0001:000025D0 00000038 C=CODE     S=.text    G=(none)   M=WinInet  ACBP=A9
 0001:00002608 00000038 C=CODE     S=.text    G=(none)   M=RegStr   ACBP=A9
 0001:00002640 00000038 C=CODE     S=.text    G=(none)   M=ShellAPI ACBP=A9
 0001:00002678 0000004E C=CODE     S=.text    G=(none)   M=Printers ACBP=A9
 0001:000026C8 00000038 C=CODE     S=.text    G=(none)   M=WinSpool ACBP=A9
 0001:00002700 0000004E C=CODE     S=.text    G=(none)   M=StdCtrls ACBP=A9
 0001:00002750 00000038 C=CODE     S=.text    G=(none)   M=CommDlg  ACBP=A9
 0001:00002788 00000038 C=CODE     S=.text    G=(none)   M=Dlgs     ACBP=A9
 0001:000027C0 00000036 C=CODE     S=.text    G=(none)   M=ExtCtrls ACBP=A9
 0001:000027F8 0000000E C=CODE     S=.text    G=(none)   M=StrUtils ACBP=A9
 0001:00002808 00000036 C=CODE     S=.text    G=(none)   M=Clipbrd  ACBP=A9
 0001:00002840 0000000E C=CODE     S=.text    G=(none)   M=FlatSB   ACBP=A9
 0001:00002850 0000000E C=CODE     S=.text    G=(none)   M=StdVCL   ACBP=A9
 0001:00002860 0000000E C=CODE     S=.text    G=(none)   M=ComObj   ACBP=A9
 0001:00002870 0000000E C=CODE     S=.text    G=(none)   M=ComConst ACBP=A9
 0001:00002880 000007DC C=CODE     S=.text    G=(none)   M=IStreams ACBP=A9
 0001:0000305C 00000016 C=CODE     S=.text    G=(none)   M=IniFiles ACBP=A9
 0001:00003074 000001F0 C=CODE     S=.text    G=(none)   M=DesignMenus ACBP=A9
 0001:00003264 000013C4 C=CODE     S=.text    G=(none)   M=DesignIntf ACBP=A9
 0001:00004628 00000246 C=CODE     S=.text    G=(none)   M=ComCtrls ACBP=A9
 0001:00004870 0000000E C=CODE     S=.text    G=(none)   M=ListActns ACBP=A9
 0001:00004880 0000000E C=CODE     S=.text    G=(none)   M=ToolWin  ACBP=A9
 0001:00004890 00000038 C=CODE     S=.text    G=(none)   M=RichEdit ACBP=A9
 0001:000048C8 0000000E C=CODE     S=.text    G=(none)   M=ExtActns ACBP=A9
 0001:000048D8 0000004E C=CODE     S=.text    G=(none)   M=Registry ACBP=A9
 0001:00004928 0000000E C=CODE     S=.text    G=(none)   M=ExtDlgs  ACBP=A9
 0001:00004938 00000066 C=CODE     S=.text    G=(none)   M=Buttons  ACBP=A9
 0001:000049A0 0000000E C=CODE     S=.text    G=(none)   M=Mapi     ACBP=A9
 0001:000049B0 0000000E C=CODE     S=.text    G=(none)   M=ComStrs  ACBP=A9
 0001:000049C0 000024FC C=CODE     S=.text    G=(none)   M=ToolsAPI ACBP=A9
 0001:00006EBC 000000E8 C=CODE     S=.text    G=(none)   M=DesignConst ACBP=A9
 0001:00006FA4 000033FC C=CODE     S=.text    G=(none)   M=Designer ACBP=A9
 0001:0000A3A0 0000091F C=CODE     S=.text    G=(none)   M=Proxies  ACBP=A9
 0001:0000ACC0 00007245 C=CODE     S=.text    G=(none)   M=DesignEditors ACBP=A9
 0001:00011F08 00000170 C=CODE     S=.text    G=(none)   M=LibConst ACBP=A9
 0001:00012078 000032BC C=CODE     S=.text    G=(none)   M=Update   ACBP=A9
 0001:00015334 00000454 C=CODE     S=.text    G=(none)   M=ToolUtils ACBP=A9
 0001:00015788 000002C4 C=CODE     S=.text    G=(none)   M=Events   ACBP=A9
 0001:00015A4C 00000CD0 C=CODE     S=.text    G=(none)   M=EditIntf ACBP=A9
 0001:0001671C 00005BF4 C=CODE     S=.text    G=(none)   M=TreeIntf ACBP=A9
 0001:0001C310 000003CB C=CODE     S=.text    G=(none)   M=TopLevels ACBP=A9
 0001:0001C6DC 000125C7 C=CODE     S=.text    G=(none)   M=ComponentDesigner ACBP=A9
 0001:0002ECA4 000015AC C=CODE     S=.text    G=(none)   M=StFilSys ACBP=A9
 0001:00030250 00000410 C=CODE     S=.text    G=(none)   M=StringsEdit ACBP=A9
 0001:00030660 0000000E C=CODE     S=.text    G=(none)   M=Grids    ACBP=A9
 0001:00030670 0000000E C=CODE     S=.text    G=(none)   M=Mask     ACBP=A9
 0001:00030680 0000000E C=CODE     S=.text    G=(none)   M=MaskUtils ACBP=A9
 0001:00030690 00000016 C=CODE     S=.text    G=(none)   M=ValEdit  ACBP=A9
 0001:000306A8 000002E4 C=CODE     S=.text    G=(none)   M=ValueEdit ACBP=A9
 0001:0003098C 00000F4C C=CODE     S=.text    G=(none)   M=StrEdit  ACBP=A9
 0001:000318D8 00000038 C=CODE     S=.text    G=(none)   M=DeskStrs ACBP=A9
 0001:00031910 00001363 C=CODE     S=.text    G=(none)   M=DeskForm ACBP=A9
 0001:00032C74 00000083 C=CODE     S=.text    G=(none)   M=IDEMessages ACBP=A9
 0001:00032CF8 00000D74 C=CODE     S=.text    G=(none)   M=IDEDockPanel ACBP=A9
 0001:00033A6C 00000568 C=CODE     S=.text    G=(none)   M=IDEDockCtrls ACBP=A9
 0001:00033FD4 00000464 C=CODE     S=.text    G=(none)   M=JoinDock ACBP=A9
 0001:00034438 00000690 C=CODE     S=.text    G=(none)   M=DeskUtil ACBP=A9
 0001:00034AC8 00000B5C C=CODE     S=.text    G=(none)   M=DockForm ACBP=A9
 0001:00035624 00000908 C=CODE     S=.text    G=(none)   M=BaseDock ACBP=A9
 0001:00035F2C 000007E4 C=CODE     S=.text    G=(none)   M=TabDock  ACBP=A9
 0001:00036710 00000A3C C=CODE     S=.text    G=(none)   M=IDEMenuAction ACBP=A9
 0001:0003714C 00001780 C=CODE     S=.text    G=(none)   M=IDECommandButton ACBP=A9
 0001:000388CC 00000864 C=CODE     S=.text    G=(none)   M=ToolForm ACBP=A9
 0001:00039130 000009A0 C=CODE     S=.text    G=(none)   M=DockToolForm ACBP=A9
 0001:00039AD0 00000038 C=CODE     S=.text    G=(none)   M=LibHelp  ACBP=A9
 0001:00039B08 00000F74 C=CODE     S=.text    G=(none)   M=PicEdit  ACBP=A9
 0001:0003AA7C 00000174 C=CODE     S=.text    G=(none)   M=DsnCmds  ACBP=A9
 0001:0003ABF0 00000E30 C=CODE     S=.text    G=(none)   M=EditorViewSupport ACBP=A9
 0001:0003BA20 000000FC C=CODE     S=.text    G=(none)   M=FileIntf ACBP=A9
 0001:0003BB1C 00000784 C=CODE     S=.text    G=(none)   M=ToolIntf ACBP=A9
 0001:0003C2A0 0000019C C=CODE     S=.text    G=(none)   M=ExptIntf ACBP=A9
 0001:0003C43C 0000001E C=CODE     S=.text    G=(none)   M=Masks    ACBP=A9
 0001:0003C45C 00000CEB C=CODE     S=.text    G=(none)   M=PropertyCategories ACBP=A9
 0001:0003D148 00000568 C=CODE     S=.text    G=(none)   M=Surface  ACBP=A9
 0001:0003D6B0 00003768 C=CODE     S=.text    G=(none)   M=VCLEditors ACBP=A9
 0001:00040E18 00000BC8 C=CODE     S=.text    G=(none)   M=DMForm   ACBP=A9
 0001:000419E0 00000AE0 C=CODE     S=.text    G=(none)   M=DesignWindows ACBP=A9
 0001:000424C0 00000694 C=CODE     S=.text    G=(none)   M=ToolWnds ACBP=A9
 0001:00042B54 000028EA C=CODE     S=.text    G=(none)   M=ColnEdit ACBP=A9
 0001:00045440 00000F40 C=CODE     S=.text    G=(none)   M=VCLMenus ACBP=A9
 0001:00046380 00000E64 C=CODE     S=.text    G=(none)   M=VCLSprigs ACBP=A9
 0001:000471E4 0000780D C=CODE     S=.text    G=(none)   M=VCLSurface ACBP=A9
 0001:0004E9F4 000009BC C=CODE     S=.text    G=(none)   M=WCtlForm ACBP=A9
 0001:0004F3B0 00000118 C=CODE     S=.text    G=(none)   M=MnuConst ACBP=A9
 0001:0004F4C8 00000BA8 C=CODE     S=.text    G=(none)   M=MenuTmpl ACBP=A9
 0001:00050070 00000418 C=CODE     S=.text    G=(none)   M=MtSvDlg  ACBP=A9
 0001:00050488 00000344 C=CODE     S=.text    G=(none)   M=MnuSelct ACBP=A9
 0001:000507CC 000002CC C=CODE     S=.text    G=(none)   M=MtDeDlg  ACBP=A9
 0001:00050A98 00000320 C=CODE     S=.text    G=(none)   M=MtInDlg  ACBP=A9
 0001:00050DB8 000006C4 C=CODE     S=.text    G=(none)   M=MtMisc   ACBP=A9
 0001:0005147C 00001118 C=CODE     S=.text    G=(none)   M=MnuFile  ACBP=A9
 0001:00052594 00007148 C=CODE     S=.text    G=(none)   M=MnuBuild ACBP=A9
 0001:000596DC 00000F04 C=CODE     S=.text    G=(none)   M=MetaSupport ACBP=A9
 0001:0005A5E0 0000008E C=CODE     S=.text    G=(none)   M=OleCtrls ACBP=A9
 0001:0005A670 0000000E C=CODE     S=.text    G=(none)   M=OleConst ACBP=A9
 0001:0005A680 00001310 C=CODE     S=.text    G=(none)   M=OCXReg   ACBP=A9
 0001:0005B990 00000445 C=CODE     S=.text    G=(none)   M=designide ACBP=A9
 0002:00000000 00000028 C=DATA     S=.data    G=DGROUP   M=SysInit  ACBP=A9
 0002:00000028 00000004 C=DATA     S=.data    G=DGROUP   M=IStreams ACBP=A9
 0002:0000002C 00000002 C=DATA     S=.data    G=DGROUP   M=DesignMenus ACBP=A9
 0002:00000030 00000004 C=DATA     S=.data    G=DGROUP   M=ToolsAPI ACBP=A9
 0002:00000034 00000020 C=DATA     S=.data    G=DGROUP   M=Designer ACBP=A9
 0002:00000054 000000C0 C=DATA     S=.data    G=DGROUP   M=DesignEditors ACBP=A9
 0002:00000114 0000002C C=DATA     S=.data    G=DGROUP   M=TreeIntf ACBP=A9
 0002:00000140 0000003C C=DATA     S=.data    G=DGROUP   M=ComponentDesigner ACBP=A9
 0002:0000017C 00000004 C=DATA     S=.data    G=DGROUP   M=StFilSys ACBP=A9
 0002:00000180 0000001C C=DATA     S=.data    G=DGROUP   M=DeskForm ACBP=A9
 0002:0000019C 00000020 C=DATA     S=.data    G=DGROUP   M=DeskUtil ACBP=A9
 0002:000001BC 00000008 C=DATA     S=.data    G=DGROUP   M=DockForm ACBP=A9
 0002:000001C4 00000002 C=DATA     S=.data    G=DGROUP   M=BaseDock ACBP=A9
 0002:000001C8 00000004 C=DATA     S=.data    G=DGROUP   M=TabDock  ACBP=A9
 0002:000001CC 00000018 C=DATA     S=.data    G=DGROUP   M=IDECommandButton ACBP=A9
 0002:000001E4 00000004 C=DATA     S=.data    G=DGROUP   M=EditorViewSupport ACBP=A9
 0002:000001E8 00000008 C=DATA     S=.data    G=DGROUP   M=ExptIntf ACBP=A9
 0002:000001F0 0000011A C=DATA     S=.data    G=DGROUP   M=VCLEditors ACBP=A9
 0002:0000030C 00000008 C=DATA     S=.data    G=DGROUP   M=DMForm   ACBP=A9
 0002:00000314 00000006 C=DATA     S=.data    G=DGROUP   M=DesignWindows ACBP=A9
 0002:0000031C 00000004 C=DATA     S=.data    G=DGROUP   M=ColnEdit ACBP=A9
 0002:00000320 0000009C C=DATA     S=.data    G=DGROUP   M=VCLSurface ACBP=A9
 0002:000003BC 00000004 C=DATA     S=.data    G=DGROUP   M=MenuTmpl ACBP=A9
 0002:000003C0 00000005 C=DATA     S=.data    G=DGROUP   M=MnuBuild ACBP=A9
 0002:000003C8 0000001C C=DATA     S=.data    G=DGROUP   M=MetaSupport ACBP=A9
 0002:000003E4 00000004 C=DATA     S=.data    G=DGROUP   M=OCXReg   ACBP=A9
 0002:00001000 00000018 C=BSS      S=.bss     G=DGROUP   M=SysInit  ACBP=A9
 0002:00001018 00000004 C=BSS      S=.bss     G=DGROUP   M=DsnConst ACBP=A9
 0002:0000101C 00000004 C=BSS      S=.bss     G=DGROUP   M=Windows  ACBP=A9
 0002:00001020 00000004 C=BSS      S=.bss     G=DGROUP   M=Messages ACBP=A9
 0002:00001024 00000004 C=BSS      S=.bss     G=DGROUP   M=VirtIntf ACBP=A9
 0002:00001028 00000004 C=BSS      S=.bss     G=DGROUP   M=CommCtrl ACBP=A9
 0002:0000102C 00000004 C=BSS      S=.bss     G=DGROUP   M=Imm      ACBP=A9
 0002:00001030 00000004 C=BSS      S=.bss     G=DGROUP   M=ShlObj   ACBP=A9
 0002:00001034 00000004 C=BSS      S=.bss     G=DGROUP   M=UrlMon   ACBP=A9
 0002:00001038 00000004 C=BSS      S=.bss     G=DGROUP   M=WinInet  ACBP=A9
 0002:0000103C 00000004 C=BSS      S=.bss     G=DGROUP   M=RegStr   ACBP=A9
 0002:00001040 00000004 C=BSS      S=.bss     G=DGROUP   M=ShellAPI ACBP=A9
 0002:00001044 00000004 C=BSS      S=.bss     G=DGROUP   M=WinSpool ACBP=A9
 0002:00001048 00000004 C=BSS      S=.bss     G=DGROUP   M=CommDlg  ACBP=A9
 0002:0000104C 00000004 C=BSS      S=.bss     G=DGROUP   M=Dlgs     ACBP=A9
 0002:00001050 00000004 C=BSS      S=.bss     G=DGROUP   M=IStreams ACBP=A9
 0002:00001054 00000004 C=BSS      S=.bss     G=DGROUP   M=DesignMenus ACBP=A9
 0002:00001058 00000030 C=BSS      S=.bss     G=DGROUP   M=DesignIntf ACBP=A9
 0002:00001088 00000004 C=BSS      S=.bss     G=DGROUP   M=RichEdit ACBP=A9
 0002:0000108C 00000008 C=BSS      S=.bss     G=DGROUP   M=ToolsAPI ACBP=A9
 0002:00001094 00000004 C=BSS      S=.bss     G=DGROUP   M=DesignConst ACBP=A9
 0002:00001098 00000004 C=BSS      S=.bss     G=DGROUP   M=Designer ACBP=A9
 0002:0000109C 0000000C C=BSS      S=.bss     G=DGROUP   M=Proxies  ACBP=A9
 0002:000010A8 00000018 C=BSS      S=.bss     G=DGROUP   M=DesignEditors ACBP=A9
 0002:000010C0 00000004 C=BSS      S=.bss     G=DGROUP   M=LibConst ACBP=A9
 0002:000010C4 00000004 C=BSS      S=.bss     G=DGROUP   M=Update   ACBP=A9
 0002:000010C8 00000004 C=BSS      S=.bss     G=DGROUP   M=ToolUtils ACBP=A9
 0002:000010CC 00000004 C=BSS      S=.bss     G=DGROUP   M=Events   ACBP=A9
 0002:000010D0 00000004 C=BSS      S=.bss     G=DGROUP   M=EditIntf ACBP=A9
 0002:000010D4 0000000C C=BSS      S=.bss     G=DGROUP   M=TreeIntf ACBP=A9
 0002:000010E0 00000008 C=BSS      S=.bss     G=DGROUP   M=TopLevels ACBP=A9
 0002:000010E8 0000001C C=BSS      S=.bss     G=DGROUP   M=ComponentDesigner ACBP=A9
 0002:00001104 0000000C C=BSS      S=.bss     G=DGROUP   M=StFilSys ACBP=A9
 0002:00001110 00000004 C=BSS      S=.bss     G=DGROUP   M=StringsEdit ACBP=A9
 0002:00001114 00000004 C=BSS      S=.bss     G=DGROUP   M=ValueEdit ACBP=A9
 0002:00001118 00000004 C=BSS      S=.bss     G=DGROUP   M=StrEdit  ACBP=A9
 0002:0000111C 00000004 C=BSS      S=.bss     G=DGROUP   M=DeskStrs ACBP=A9
 0002:00001120 00000015 C=BSS      S=.bss     G=DGROUP   M=DeskForm ACBP=A9
 0002:00001138 0000000C C=BSS      S=.bss     G=DGROUP   M=IDEMessages ACBP=A9
 0002:00001144 00000004 C=BSS      S=.bss     G=DGROUP   M=IDEDockPanel ACBP=A9
 0002:00001148 00000004 C=BSS      S=.bss     G=DGROUP   M=IDEDockCtrls ACBP=A9
 0002:0000114C 00000004 C=BSS      S=.bss     G=DGROUP   M=JoinDock ACBP=A9
 0002:00001150 0000000C C=BSS      S=.bss     G=DGROUP   M=DeskUtil ACBP=A9
 0002:0000115C 00000004 C=BSS      S=.bss     G=DGROUP   M=DockForm ACBP=A9
 0002:00001160 00000008 C=BSS      S=.bss     G=DGROUP   M=BaseDock ACBP=A9
 0002:00001168 00000004 C=BSS      S=.bss     G=DGROUP   M=TabDock  ACBP=A9
 0002:0000116C 00000004 C=BSS      S=.bss     G=DGROUP   M=IDEMenuAction ACBP=A9
 0002:00001170 00000004 C=BSS      S=.bss     G=DGROUP   M=IDECommandButton ACBP=A9
 0002:00001174 00000004 C=BSS      S=.bss     G=DGROUP   M=ToolForm ACBP=A9
 0002:00001178 00000004 C=BSS      S=.bss     G=DGROUP   M=DockToolForm ACBP=A9
 0002:0000117C 00000004 C=BSS      S=.bss     G=DGROUP   M=LibHelp  ACBP=A9
 0002:00001180 00000004 C=BSS      S=.bss     G=DGROUP   M=PicEdit  ACBP=A9
 0002:00001184 00000008 C=BSS      S=.bss     G=DGROUP   M=DsnCmds  ACBP=A9
 0002:0000118C 0000000C C=BSS      S=.bss     G=DGROUP   M=EditorViewSupport ACBP=A9
 0002:00001198 00000004 C=BSS      S=.bss     G=DGROUP   M=FileIntf ACBP=A9
 0002:0000119C 00000004 C=BSS      S=.bss     G=DGROUP   M=ToolIntf ACBP=A9
 0002:000011A0 00000004 C=BSS      S=.bss     G=DGROUP   M=ExptIntf ACBP=A9
 0002:000011A4 00000008 C=BSS      S=.bss     G=DGROUP   M=PropertyCategories ACBP=A9
 0002:000011AC 00000004 C=BSS      S=.bss     G=DGROUP   M=Surface  ACBP=A9
 0002:000011B0 00000008 C=BSS      S=.bss     G=DGROUP   M=VCLEditors ACBP=A9
 0002:000011B8 00000004 C=BSS      S=.bss     G=DGROUP   M=DMForm   ACBP=A9
 0002:000011BC 00000004 C=BSS      S=.bss     G=DGROUP   M=DesignWindows ACBP=A9
 0002:000011C0 00000004 C=BSS      S=.bss     G=DGROUP   M=ToolWnds ACBP=A9
 0002:000011C4 00000004 C=BSS      S=.bss     G=DGROUP   M=ColnEdit ACBP=A9
 0002:000011C8 00000004 C=BSS      S=.bss     G=DGROUP   M=VCLMenus ACBP=A9
 0002:000011CC 00000004 C=BSS      S=.bss     G=DGROUP   M=VCLSprigs ACBP=A9
 0002:000011D0 00000014 C=BSS      S=.bss     G=DGROUP   M=VCLSurface ACBP=A9
 0002:000011E4 00000004 C=BSS      S=.bss     G=DGROUP   M=WCtlForm ACBP=A9
 0002:000011E8 00000004 C=BSS      S=.bss     G=DGROUP   M=MnuConst ACBP=A9
 0002:000011EC 00000004 C=BSS      S=.bss     G=DGROUP   M=MenuTmpl ACBP=A9
 0002:000011F0 00000004 C=BSS      S=.bss     G=DGROUP   M=MtSvDlg  ACBP=A9
 0002:000011F4 00000004 C=BSS      S=.bss     G=DGROUP   M=MnuSelct ACBP=A9
 0002:000011F8 00000004 C=BSS      S=.bss     G=DGROUP   M=MtDeDlg  ACBP=A9
 0002:000011FC 00000004 C=BSS      S=.bss     G=DGROUP   M=MtInDlg  ACBP=A9
 0002:00001200 00000004 C=BSS      S=.bss     G=DGROUP   M=MtMisc   ACBP=A9
 0002:00001204 00000004 C=BSS      S=.bss     G=DGROUP   M=MnuFile  ACBP=A9
 0002:00001208 00000004 C=BSS      S=.bss     G=DGROUP   M=MnuBuild ACBP=A9
 0002:0000120C 00000004 C=BSS      S=.bss     G=DGROUP   M=MetaSupport ACBP=A9
 0002:00001210 00000004 C=BSS      S=.bss     G=DGROUP   M=OCXReg   ACBP=A9


  Address         Publics by Name

 0002:00001098       .01
 0002:000010DC       .02
 0002:00001088       .1
 0002:00001150       .1
 0002:00001140       .1
 0002:000011D0       .1
 0002:0000117C       .1
 0002:0000120C       .1
 0002:00001048       .1
 0002:000011E8       .1
 0002:0000109C       .1
 0002:0000104C       .1
 0002:00001054       .1
 0002:00001018       .1
 0002:00001020       .1
 0002:00001204       .1
 0002:000010E0       .1
 0002:00001028       .1
 0002:0000102C       .1
 0002:000010C0       .1
 0002:00001030       .1
 0002:00001010       .1
 0002:0000103C       .1
 0002:00001200       .1
 0002:00001038       .1
 0002:00001094       .1
 0002:00001034       .1
 0002:00001040       .1
 0002:0000111C       .1
 0002:000010E8       .12
 0002:0000115C       .2
 0002:00001164       .2
 0002:00001168       .2
 0002:00001170       .2
 0002:00001174       .2
 0002:00001178       .2
 0002:00001188       .2
 0002:00001198       .2
 0002:000011AC       .2
 0002:00001024       .2
 0002:000011BC       .2
 0002:000011C0       .2
 0002:000011F8       .2
 0002:000010CC       .2
 0002:000011F4       .2
 0002:000010C8       .2
 0002:000011FC       .2
 0002:000011F0       .2
 0002:0000114C       .2
 0002:00001148       .2
 0002:00001128       .2
 0002:00001114       .2
 0002:00001110       .2
 0002:00001144       .3
 0002:000011A0       .3
 0002:0000101C       .3
 0002:000011B8       .3
 0002:000011C4       .3
 0002:00001044       .3
 0002:00001090       .3
 0002:000011E4       .3
 0002:000011EC       .3
 0002:000010C4       .4
 0002:000011A4       .4
 0002:00001118       .4
 0002:000011B4       .41
 0002:00001050       .5
 0002:0000119C       .5
 0002:00001194       .5
 0002:000010D0       .51
 0002:00001180       .6
 0002:000011C8       .6
 0002:0000116C       .6
 0002:00001084       .7
 0002:0000110C       .7
 0002:000011CC       .7
 0002:000010AC       .72
 0002:00001210       .8
 0002:00001208       .9
 0001:0005BDB0       @GetPackageInfoTable
 0001:000004D8       @InitPkg
 0001:0000053C       @PackageLoad
 0001:0005BDB8       @PackageLoad
 0001:0005BDC4       @PackageUnload
 0001:00000548       @PackageUnload
 0002:00000200       ActionClasses
 0001:0001C4BC       ActivateTopLevelComponent
 0001:0002C358       ActiveDesigner
 0001:0002C3A8       ActiveRoot
 0001:0004BB90       AddComponents
 0001:00029B50       AddComponents
 0001:0004B4FC       AddComponentVerbs
 0001:0004BB14       AddControls
 0001:0004AAB8       AddFormLocalMenu
 0002:000001AC       AddMainFormCreatedEvent
 0002:000001B4       AddMainFormShownEvent
 0001:0004AE5C       AddModuleLocalMenu
 0001:0004B2A4       AddModuleVerbs
 0001:000133C4       AddNestedObjects
 0001:0000A3A0       AddProxy
 0001:0004B3B4       AddSelectionVerbs
 0001:00015604       AddToList
 0001:0000880C       Adjust
 0001:00056318       AdjustWindowItems
 0002:00000390       Affects
 0001:0000A768       AllocMethod
 0001:000003D8       AllocTlsBuffer
 0001:00027844       AncestorInSelection
 0001:00010BE4       AncestorNameMatches
 0001:000406CC       AnotherObject
 0001:0004BAD4       ApproveControls
 0001:00035EEC       BaseDock
 0002:000001F4       BaseRegistryKey
 0001:000008BC       BeginDeferWindowPos
 0001:00031D04       BeginDesktopUpdate
 0001:000008C4       BeginPaint
 0001:00014AB8       BeginStream
 0002:0000108C       BorlandIDEServices
 0001:00053F74       BreakConnections
 0001:0004F690       BuildTemplateFileName
 0001:000213FC       CalcComponentName
 0001:00059E40       CalculatePageCount
 0001:000008CC       CallNextHookEx
 0001:00014EDC       CallUpdateds
 0001:0001C53C       CaptionFromComponent
 0001:000530B8       CaptionToName
 0001:000115E0       Cast
 0002:000003DC       cBorderColor
 0002:00000130       cDeleteStyle
 0001:00028F28       Center
 0002:000011B0       CF_COMPONENTS
 0001:0003CA64       ChangeIfNot
 0001:0000A9B4       ChangeToProxyClass
 0001:0004C37C       CharEvent
 0001:0000EC68       CheckChainCall
 0001:0004B828       CheckContainersOf
 0001:00056458       CheckForDescendants
 0001:00051194       CheckForDuplicate
 0001:000268B8       CheckForFrameComponents
 0001:00051B18       CheckForItemOption
 0001:00051AC0       CheckForLoadOption
 0001:00051C1C       CheckForMemoryOption
 0001:00024A10       CheckNoFixups
 0001:00031B7C       CheckUpdatesDisabled
 0002:00000128       CImageIndex
 0001:00010BA0       ClassInheritsFrom
 0001:0001FA70       ClearComponentDependencies
 0001:000008D4       ClientToScreen
 0001:000008DC       ClipCursor
 0002:0000002C       CLocalMenusIf
 0002:000001C4       CloseActions
 0002:000003D4       CMetaSaveExtensions
 0002:0000031C       CollectionEditorsList
 0001:0004541C       ColnEdit
 0001:0003F810       ColorToBorderColor
 0001:00001A28       CommCtrl
 0001:00002780       CommDlg
 0001:00023338       CompareEventPrefix
 0002:000000BC       ComponentClassList
 0001:0002EBD4       ComponentDesigner
 0001:0001C408       ComponentFromWindow
 0001:000563DC       ConstructList
 0002:00000320       ContainerWindowClass
 0001:0001EBC4       ContainsComponentOfClass
 0001:0003B8A0       ContextResurrect
 0001:0003B628       ContextToDesigner
 0001:0003B7CC       ContextToFilename
 0001:0003B6F4       ContextToFormEditor
 0001:0003B858       ContextToModule
 0001:0003B5B0       ContextToRootComponent
 0002:000010D4       CopySprigGlyphFunc
 0001:000405D8       CopyStreamToClipboard
 0001:00040574       CopyToClipboard
 0001:00053468       CorrectItem
 0001:000212E0       CountComponents
 0001:00029AE4       CountItems
 0001:0003EC40       CreateAction
 0001:0004E660       CreateDragTarget
 0001:0000087C       CreateFontIndirect
 0001:00014BC0       CreateFromAncestor
 0001:0003EB1C       CreateMaskedBmp
 0001:00022EE8       CreateMethods
 0001:0001FEF4       CreateNew
 0001:00053FF8       CreateNew
 0001:0000A4D4       CreateProxyClass
 0001:0000A5CC       CreateProxyMethod
 0001:00004398       CreateSelectionList
 0001:0004A970       CreateSpecialItems
 0001:0000A990       CreateSubClass
 0001:0000A8F4       CreateSubClass
 0001:0000AB2C       CreateSubClassMethod
 0001:0005123C       CreateTheTemplate
 0001:00014EC0       CreateUpdateObjects
 0001:00000B28       CreateWindow
 0001:000008E4       CreateWindowEx
 0002:00000134       CStateIndex
 0002:00000118       CUIControlImageIndex
 0002:00000370       CursorNames
 0002:000010F8       CustomModules
 0001:0003EEB8       DefaultPropertyDrawName
 0001:0003EF28       DefaultPropertyDrawValue
 0001:0003EF98       DefaultPropertyListDrawValue
 0002:0000113C       DeferDoLayoutMsg
 0002:00001138       DeferRecalcVisibleMsg
 0001:000008F4       DeferWindowPos
 0001:000008EC       DefWindowProc
 0001:00014E98       DeleteDeleted
 0001:000564C8       DeleteMenuItems
 0001:00000884       DeleteObject
 0001:00056528       DeleteWindowItems
 0002:00000034       Deltas
 0001:00006F9C       DesignConst
 0001:00011EC0       DesignEditors
 0001:0000A398       Designer
 0002:00001100       DesignerFuncs
 0001:0002C340       Designers
 0002:000001FC       DesignersList
 0001:0005BDD0       designide
 0001:00004620       DesignIntf
 0001:0000325C       DesignMenus
 0002:000010F4       DesignNotifications
 0001:000424B8       DesignWindows
 0001:00032C64       DeskForm
 0001:00031908       DeskStrs
 0002:00001154       DesktopFormClasses
 0002:0000112C       DesktopForms
 0002:00001158       DesktopProcs
 0002:00001130       DesktopUpdateCount
 0001:00034AC0       DeskUtil
 0001:00035818       DestroyDockHosts
 0001:0000A800       DestroyHook
 0001:0000A590       DestroyProxyClass
 0001:0000A6D4       DestroyProxyMethod
 0001:0000A9F8       DestroySubClass
 0001:0000ABE8       DestroySubClassMethod
 0001:000008FC       DestroyWindow
 0001:00056198       DetermineInsertPosition
 0002:000003C4       DINFileExist
 0001:00000904       DispatchMessage
 0001:000027B8       Dlgs
 0001:000419D8       DMForm
 0001:00027BCC       DoAlignToGrid
 0001:00035610       DockForm
 0002:000001BC       DockHostClasses
 0001:00039AC8       DockToolForm
 0001:0001C37C       DoComponentFromWindow
 0001:0001A0F8       DoCustomDelete
 0001:00034A10       DoDesktopLoadProcs
 0001:00034A28       DoDesktopSaveProcs
 0001:00027CE4       DoFlip
 0001:00014D9C       DoInsertInserted
 0001:00023CA0       DoMethod
 0001:00024638       DoMethod
 0001:00034A40       DoneDeskUtil
 0001:00027D28       DoRevert
 0001:0000081C       DosDateTimeToFileTime
 0001:00027CF0       DoTextDFM
 0002:000001CC       DownStyles
 0002:000011E0       DragClassRegistry
 0002:000011DC       DragTargetList
 0001:00059A24       DrawBounds
 0001:0000090C       DrawEdge
 0001:00000914       DrawFocusRect
 0001:0000091C       DrawFrameControl
 0001:00000924       DrawIconEx
 0001:0004890C       DrawMarker
 0001:0004CDD4       DrawPixels
 0001:0004894C       DrawSelection
 0001:0000092C       DrawText
 0002:000001DC       DropdownStyles
 0002:000011D4       DsgnWindowAtom
 0001:0003ABE8       DsnCmds
 0002:00001184       DsnCommands
 0001:00000814       DsnConst
 0001:00040C28       EditActionFor
 0001:00016714       EditIntf
 0002:000010BC       EditorGroupList
 0002:000001E4       EditorViewList
 0001:0003BA14       EditorViewSupport
 0002:00000174       Empty
 0002:00000150       EmptyPoint
 0002:0000030C       EmptyPoint
 0002:00000140       EmptyRect
 0001:00000934       EndDeferWindowPos
 0001:00031D14       EndDesktopUpdate
 0001:0000093C       EndPaint
 0001:00014B68       EndStream
 0001:0003E984       EnumActions
 0001:00000944       EnumWindows
 0001:00057E80       EraseAll
 0001:0002FE7C       Error
 0001:00024788       Error
 0001:0000D3A8       Error
 0001:00015A44       Events
 0002:00000170       EvRootActivatedEvent
 0002:00000028       ExceptionHandler
 0001:00000484       ExitProcessTLS
 0001:0000045C       ExitThreadTLS
 0001:00009480       ExpandRect
 0001:0003C434       ExptIntf
 0001:00007BC8       ExtractComponent
 0001:000145D0       ExtractManager
 0001:00007B44       ExtractPersistent
 0001:000440B8       FetchItems
 0001:0003BB14       FileIntf
 0001:0000094C       FillRect
 0002:000001D4       FillStyles
 0001:00039AD0       Finalization
 0001:0000AC64       Finalization
 0001:0003AA44       Finalization
 0001:00039A98       Finalization
 0001:000390F8       Finalization
 0001:00059698       Finalization
 0001:00038894       Finalization
 0001:0003ABB8       Finalization
 0001:00037114       Finalization
 0001:000366D8       Finalization
 0001:00035EB0       Finalization
 0001:000355C4       Finalization
 0001:0000A368       Finalization
 0001:00034A88       Finalization
 0001:0003B9D8       Finalization
 0001:0003BAE4       Finalization
 0001:0003C268       Finalization
 0001:00034400       Finalization
 0001:00033F9C       Finalization
 0001:0003C404       Finalization
 0001:00033A34       Finalization
 0001:00032CB8       Finalization
 0001:00032C34       Finalization
 0001:000318D8       Finalization
 0001:0003D0D8       Finalization
 0001:00000B5C       Finalization
 0001:0003D678       Finalization
 0001:000318A0       Finalization
 0001:00030954       Finalization
 0001:00000BD4       Finalization
 0001:00030628       Finalization
 0001:0003020C       Finalization
 0001:0002EB58       Finalization
 0001:00001638       Finalization
 0001:000019F8       Finalization
 0001:000024B8       Finalization
 0001:00040D70       Finalization
 0001:00002560       Finalization
 0001:000419A8       Finalization
 0001:00002598       Finalization
 0001:00042488       Finalization
 0001:000025D0       Finalization
 0001:00042B1C       Finalization
 0001:00002608       Finalization
 0001:000453D8       Finalization
 0001:00002640       Finalization
 0001:00046348       Finalization
 0001:000026C8       Finalization
 0001:000471AC       Finalization
 0001:0005255C       Finalization
 0001:00002750       Finalization
 0001:00002788       Finalization
 0001:00006F6C       Finalization
 0001:00051444       Finalization
 0001:00006E78       Finalization
 0001:0001C68C       Finalization
 0001:00050D80       Finalization
 0001:00050A60       Finalization
 0001:0001C2A0       Finalization
 0001:00003024       Finalization
 0001:00004890       Finalization
 0001:000045F0       Finalization
 0001:0000322C       Finalization
 0001:00050794       Finalization
 0001:00050450       Finalization
 0001:000007E4       Finalization
 0001:00000554       Finalization
 0001:000166E4       Finalization
 0001:0005A590       Finalization
 0001:00050004       Finalization
 0001:00015A14       Finalization
 0001:00015750       Finalization
 0001:000152FC       Finalization
 0001:0005B958       Finalization
 0001:0004E940       Finalization
 0001:00012040       Finalization
 0001:0004F378       Finalization
 0001:00011E4C       Finalization
 0001:0004F490       Finalization
 0001:00017DF0       FindBestRootSprigClass
 0001:00017DCC       FindBestRootSprigClass
 0001:00017D08       FindBestSprigClass
 0001:00017CE4       FindBestSprigClass
 0001:0001FC6C       FindComponent
 0001:0003EA64       FindComponentByClass
 0001:000241F8       FindComponentDependencies
 0001:00053CA0       FindCtlForItem
 0001:0002F398       FindFormAndComponent
 0001:00053C88       FindGenesisOfMenuItem
 0001:00053B4C       FindItemWinForMenu
 0001:00057310       FindNewBounds
 0001:000245C4       FindNewValue
 0001:000545A8       FindParentItem
 0001:0000A66C       FindProxyMethod
 0001:00021A78       FindRootClass
 0001:0004DC64       FindScanline
 0001:0001C424       FindTopComponent
 0001:00022AA4       FindUniqueMethod
 0001:00014BA4       FixupComponents
 0001:00000824       FlushFileBuffers
 0001:00017E3C       FlushSprigTypes
 0001:000348F4       FocusWindow
 0002:000001F0       FontNamePropertyDisplayFontNames
 0001:000156B4       ForEach
 0001:0004C6A0       FormClose
 0001:0003D0C0       FreeCategoryGroup
 0001:00010D20       FreeEditorGroup
 0001:000003A0       FreeLibrary
 0001:0000A790       FreeMethod
 0001:0000A7AC       FreeMethods
 0001:00055678       FreeTemplate
 0001:00000954       GetActiveWindow
 0001:000125DC       GetAncestorUpdates
 0001:00053660       GetBitMapWidth
 0001:0000088C       GetBkMode
 0001:0000095C       GetCapture
 0001:00000964       GetClassInfo
 0001:0000096C       GetClientRect
 0001:00040770       GetClipboardStream
 0001:00010128       GetComponentEditor
 0001:0000F7DC       GetComponentProperties
 0001:0000082C       GetCurrentThreadId
 0001:00000974       GetCursor
 0001:0004DC74       GetCursorHeightMargin
 0001:0000097C       GetCursorPos
 0001:0003F4D4       GetCustomColors
 0001:00000984       GetDC
 0001:00000894       GetDeviceCaps
 0001:0003EE80       GetDisplayValue
 0002:00000198       GetDockable
 0001:0000F4F4       GetEditorClass
 0001:00040CAC       GetEditStateFor
 0002:000001A0       GetFieldAddress
 0001:00000834       GetFileTime
 0001:0000098C       GetIconInfo
 0001:0000099C       GetKeyboardState
 0001:00000994       GetKeyState
 0001:00054EB4       GetMenuFont
 0001:0001F840       GetNonAncestorNames
 0001:0005ABA0       GetOleObjectClassRec
 0001:0004C41C       GetPaintInfo
 0001:000009A4       GetParent
 0001:0002D658       GetPropertyValue
 0001:000112A8       GetSelectedType
 0001:000106C8       GetSelectionEditors
 0001:00010840       GetSelectionEditors
 0001:000108B8       GetSelectionEditors
 0001:0000089C       GetStockObject
 0001:000009AC       GetSystemMetrics
 0001:000003E4       GetTlsSize
 0002:000010A8       GetTopLevelComponentFunc
 0001:00054804       GetTopLevelItem
 0001:0000083C       GetUserDefaultLCID
 0001:00011484       GetVariantStr
 0001:0004E468       GetVCLDesignSurface
 0001:000009B4       GetWindowLong
 0001:000009BC       GetWindowPlacement
 0001:000009C4       GetWindowRect
 0002:000003BC       GLoadedTemplatesFrom
 0001:00000844       GlobalAddAtom
 0001:0000084C       GlobalAlloc
 0001:00000854       GlobalLock
 0001:0000085C       GlobalSize
 0001:00000864       GlobalUnlock
 0002:00000348       GrabHandleWindowClass
 0001:00049E90       GrabHandleWndProc
 0002:00000054       GReferenceExpandable
 0001:0004E890       GroupChanged
 0001:0001EB6C       GroupChangeNotification
 0002:000010B8       GroupNotifyList
 0002:00000114       GShowClassNameInTreeView
 0002:00000058       GShowReadOnlyProps
 0001:000565B8       HandleEmptyMenu
 0001:00055AD0       HandleEscape
 0001:00008DB4       HandleEscape
 0001:0005593C       HandleHomeEnd
 0001:00057448       HandleNewItem
 0002:000010E4       Handlers
 0001:00055EA0       HandleVKRight
 0001:00054034       HideOthers
 0002:0000100C       HInstance
 0001:0004D40C       HintGetMsgHook
 0002:000011D8       HintHook
 0001:0004D4B0       HookHintHooks
 0002:00001160       HostDockFormList
 0001:000388C4       IDECommandButton
 0001:00033FCC       IDEDockCtrls
 0001:00033A64       IDEDockPanel
 0002:0000019C       IDEIniFile
 0001:00037144       IDEMenuAction
 0001:00032CE8       IDEMessages
 0001:000019F0       ImageList_Draw
 0001:00045BEC       IMainMenuFor
 0001:00045C3C       IMenuItemFor
 0001:00045C64       IMenuItemsFor
 0001:000024E8       Imm
 0001:000009CC       InflateRect
 0001:0004E4E0       InitAtom
 0001:0004B064       InitBaseMenu
 0001:00032C74       InitGlobals
 0001:0002EB0C       InitializeDesigners
 0002:00001120       InitializeForm
 0001:000004A8       InitializeModule
 0001:00000430       InitProcessTLS
 0001:000003EC       InitThreadTLS
 0001:00014E28       InsertInserted
 0001:0000F37C       InterfaceInheritsFrom
 0002:000010EC       InternalDesigners
 0001:0004B6DC       InternalFindContainer
 0002:000011A8       InternalPropertyCategoryList
 0002:0000013C       InternalRootSprigList
 0002:00000124       InternalRootSprigTypeList
 0002:00000120       InternalSprigTypeList
 0001:000009D4       InvalidateRect
 0001:00045C14       IPopupMenuFor
 0001:00025908       IsANestableModule
 0001:0001C5D0       IsComponentDesigner
 0001:0004C028       IsDblClick
 0001:0004E848       IsDesignDragObject
 0001:00031D34       IsDesktopLocked
 0001:0002418C       IsExternalLink
 0001:00053030       IsFocusable
 0001:000009DC       IsIconic
 0001:00025528       IsInterestingClass
 0001:00053084       IsItemEmpty
 0001:0001E8FC       IsNoIconComponent
 0001:00055B14       IsOkToEdit
 0001:0002406C       IsOwnedBy
 0001:00043418       IsOwnedBy
 0001:0003D014       IsPropertyInCategory
 0001:0003CFF0       IsPropertyInCategory
 0001:0000AC08       IsProxyClass
 0001:000009E4       IsRectEmpty
 0001:00054C2C       IsSelection
 0001:000547C8       IsThisAMainMenu
 0001:000530AC       IsThisChicago
 0001:00003054       IStreams
 0001:000009EC       IsWindowVisible
 0001:00048858       ItemFor
 0001:000441D8       ItemsEqual
 0001:00021DDC       IterateObjectMethods
 0001:00034430       JoinDock
 0001:0004C2A8       KeyEvent
 0002:00000398       KeyMap
 0001:000009F4       KillTimer
 0001:00012070       LibConst
 0001:00039B00       LibHelp
 0002:000001E8       LibraryExpertProc
 0002:00000030       LibraryWizardProc
 0001:0003CA78       ListedCategory
 0001:000009FC       LoadBitmap
 0001:00000A04       LoadCursor
 0001:000349A8       LoadDesktopFormClasses
 0002:00001124       LoadedDesktopFormInstances
 0001:0005245C       LoadMenuFromResource
 0001:0004FE78       LoadMenuTemplateManagerFromDisk
 0001:000003A8       LocalAlloc
 0001:0000086C       LocalFileTimeToFileTime
 0001:000003B0       LocalFree
 0001:0001AD24       MakeExpanded
 0001:0005AFC0       MapOleCustomProperty
 0001:00000A0C       MapWindowPoints
 0001:0003C778       MatchClass
 0001:0001A6B8       MatchingItem
 0001:0003C748       MatchName
 0001:0003C7B4       MatchType
 0001:00053290       MenuAutoName
 0001:00050F84       MenuClone
 0002:000003C0       MenuEditor
 0001:00050FF4       MenuTemplateDelete
 0001:00051114       MenuTemplateInsert
 0001:000512B8       MenuTemplateSave
 0001:00050040       MenuTmpl
 0001:000534C8       MenuTreeAutoName
 0001:00000A14       MessageBeep
 0001:00000C04       Messages
 0001:00059E94       MetaPrint
 0002:000003C8       MetaPrintBorderSize
 0002:000003CC       MetaPrintHeaderSize
 0002:000003D0       MetaPrintOverlapSize
 0001:00059824       MetaSave
 0001:0005A5D8       MetaSupport
 0002:000010A0       MethodNumbers
 0001:00012464       MethodsEqual
 0001:000596D4       MnuBuild
 0001:0004F4C0       MnuConst
 0001:0005258C       MnuFile
 0001:000507C4       MnuSelct
 0002:00000204       ModalResults
 0001:00053940       ModifySettings
 0002:00000000       Module
 0002:00001000       ModuleIsLib
 0002:00001001       ModuleIsPackage
 0001:0004C044       MouseEvent
 0001:0004CB64       MoveContainersFor
 0001:00008C78       MoveControls
 0001:00028D04       MoveControls
 0001:00057670       MoveDroppedMenus
 0001:00050A90       MtDeDlg
 0001:00050DB0       MtInDlg
 0001:00051474       MtMisc
 0001:00050480       MtSvDlg
 0001:00000874       MulDiv
 0001:00056094       NavTopUD
 0001:00048998       NewActionItem
 0001:0004B17C       NewContextItem
 0001:00010C70       NewEditorGroup
 0001:00053014       NewTransientMenuItem
 0002:000010F0       NoIconClasses
 0001:0000A854       NotificationHook
 0002:000001F8       NotifyActionListChange
 0001:00010CC4       NotifyGroupChange
 0001:0005B988       OCXReg
 0002:00000168       OffScreenPoint
 0002:00000158       OffScreenRect
 0001:00007AB8       OffsetRect
 0001:00000A1C       OffsetRect
 0002:000003E4       OleObjectClassList
 0001:00052FD8       OutputDebug
 0001:00052FD4       OutputDebug
 0001:0000A81C       OwnedBy
 0001:0004C47C       PaintEvent
 0001:0005214C       ParseMenu
 0001:00051C98       ParseMenuItem
 0001:00051E3C       ParsePopup
 0001:00052400       ParseResource
 0001:00000A24       PeekMessage
 0001:00055BE8       PerformSelectionActions
 0001:0003AA74       PicEdit
 0001:00007C48       PointZero
 0001:0004C5C8       PosChanged
 0001:0000C6D4       PossibleStream
 0001:00000A2C       PostMessage
 0001:00000A34       PostQuitMessage
 0002:0000005C       Precisions
 0002:00000070       PropClassMap
 0001:0003D128       PropertyCategories
 0001:0003D044       PropertyCategoryList
 0002:000010B0       PropertyClassList
 0002:000000B8       PropertyMapperList
 0001:0001E958       ProtectEnvironment
 0001:0000ACA0       Proxies
 0002:000010A4       ProxyList
 0001:00000A3C       PtInRect
 0001:00034DBC       PumpDockingMessages
 0001:00012920       ReadBinary
 0001:000008A4       Rectangle
 0001:0003E650       RegActions
 0001:000300B8       Register
 0001:0005B8AC       Register
 0001:0005965C       Register
 0001:00000A44       RegisterClass
 0001:00000A4C       RegisterClipboardFormat
 0001:00004194       RegisterComponentEditor
 0001:000100C4       RegisterComponentEditor
 0002:00001070       RegisterComponentEditorProc
 0002:0000118C       RegisterCustomEditorViewProc
 0001:0000452C       RegisterCustomModule
 0001:0001EB2C       RegisterCustomModuleImp
 0002:00001078       RegisterCustomModuleProc
 0001:000045D4       RegisterDesignDragObject
 0001:0004E7F8       RegisterDesignDragObject
 0002:00001080       RegisterDesignDragObjectProc
 0001:0001E974       RegisterDesignNotification
 0001:00004098       RegisterDesignNotification
 0002:00001058       RegisterDesignNotificationProc
 0001:00034924       RegisterDesktopFormClass
 0001:0003495C       RegisterDesktopProcs
 0001:000045AC       RegisterDragTarget
 0001:0004E6B4       RegisterDragTarget
 0002:0000107C       RegisterDragTargetProc
 0001:0003B584       RegisteredEditorViews
 0001:0002E9FC       RegisterEditors
 0001:0003B4B0       RegisterEditorView
 0002:000001A4       RegisterFieldAddress
 0001:0001C65C       RegisterHandler
 0001:0002EAC8       RegisterInitializeDesigner
 0001:0003C3E8       RegisterLibraryExpert
 0002:00000190       RegisterMainFormShown
 0002:00000180       RegisterMenu
 0001:0001E8AC       RegisterNoIcons
 0001:0005B848       RegisterOleObjectEditor
 0001:00006E2C       RegisterPackageWizard
 0001:00003FF8       RegisterPropertiesInCategory
 0001:00004048       RegisterPropertiesInCategory
 0001:00003F24       RegisterPropertiesInCategory
 0001:0000F3F8       RegisterPropertyEditor
 0001:000043C0       RegisterPropertyEditor
 0002:00001060       RegisterPropertyEditorProc
 0001:00003E6C       RegisterPropertyInCategory
 0001:00003EF8       RegisterPropertyInCategory
 0001:00003EC8       RegisterPropertyInCategory
 0001:0003D088       RegisterPropertyInCategory
 0001:00003E98       RegisterPropertyInCategory
 0002:00001068       RegisterPropertyInCategoryProc
 0001:00003E50       RegisterPropertyMapper
 0001:0000FC00       RegisterPropertyMapper
 0002:0000106C       RegisterPropertyMapperProc
 0001:00017D54       RegisterRootSprigType
 0001:00017D90       RegisterRootSprigType
 0001:0001067C       RegisterSelectionEditor
 0001:000044A4       RegisterSelectionEditor
 0002:00001074       RegisterSelectionEditorProc
 0001:00017C6C       RegisterSprigType
 0001:00017CA8       RegisterSprigType
 0001:00000A54       RegisterWindowMessage
 0001:00002638       RegStr
 0001:00000A5C       ReleaseCapture
 0001:00000A64       ReleaseDC
 0001:0000161C       ReleaseException
 0001:00057144       RelocateItemWindows
 0001:0004FE4C       RemoveComponents
 0001:00056CFC       RemoveExtraWindows
 0002:000001B0       RemoveMainFormCreatedEvent
 0002:000001B8       RemoveMainFormShownEvent
 0001:00000A6C       RemoveProp
 0001:0000A3D4       RemoveProxy
 0001:0000A42C       RenameProxyClass
 0001:000281E0       RenameRoot
 0001:0000AA9C       RenameSubClass
 0001:0000AB9C       RenameSubClassMethod
 0001:0000FDF8       ReplaceBest
 0001:000541C4       ReturnAppropriateWin
 0001:00056D34       ReturnAppropriateWindow
 0001:000048C0       RichEdit
 0001:000241B4       RootNameOfClassName
 0001:0001C020       RootSprigList
 0001:0001ECE4       SafeSave
 0001:0002880C       SameImplementation
 0001:00007B04       SameItem
 0001:0003F574       SaveCustomColors
 0001:000349D8       SaveDesktopFormClasses
 0001:00000A74       ScreenToClient
 0001:00054108       SearchForExisting
 0001:00054174       SearchForHidden
 0001:00053524       SelectAndMakeActive
 0002:000010B4       SelectionEditorDefinitionList
 0001:00040B54       SelectionMessageListOf
 0001:00029074       SelectionsAsItems
 0001:000293D0       SelectionsAsItems
 0001:000576D8       SelectItems
 0001:000008AC       SelectObject
 0001:000257B4       SendComponentsOf
 0001:00000A7C       SendMessage
 0002:000001C8       Separators
 0001:00000A84       SetActiveWindow
 0001:000008B4       SetBkMode
 0001:00000A8C       SetCapture
 0001:00022604       SetChildAncestors
 0001:00000A94       SetCursor
 0001:00000A9C       SetFocus
 0001:00055D68       SetInitialValues
 0001:00056D88       SetInitialValues
 0001:00057594       SetInitialValues
 0001:00057798       SetInitialValues
 0001:00000AA4       SetParent
 0001:00000AAC       SetProp
 0001:00050E84       SetPropertiesAndEvents
 0001:000043F4       SetPropertyEditorGroup
 0001:0000F498       SetPropertyEditorGroup
 0002:00001064       SetPropertyEditorGroupProc
 0001:0002D49C       SetPropertyValue
 0001:00000AB4       SetTimer
 0001:00000ABC       SetWindowLong
 0001:00000AC4       SetWindowPlacement
 0001:00000ACC       SetWindowPos
 0001:00000AD4       SetWindowsHookEx
 0001:00002670       ShellAPI
 0001:00002590       ShlObj
 0002:00000230       ShortCuts
 0001:00054230       ShowAndMove
 0001:00043254       ShowCollectionEditor
 0001:000430B4       ShowCollectionEditorClass
 0002:00000314       ShowCommands
 0001:0003484C       ShowDockableForm
 0001:00059A00       ShowProgress
 0001:00000ADC       ShowWindow
 0001:000249D8       SingularOrPlural
 0001:00056AD8       SizeSub
 0001:00056A10       SizeTop
 0001:000518B8       SkipComment
 0001:0005187C       SkipToEOL
 0001:00052104       SkipToMenuStart
 0001:00000B14       SmallPointToPoint
 0001:00019820       SortBySprigItemIndex
 0001:00028B60       SortItems
 0001:00028E30       SpaceEqually
 0001:00007C04       Spacing
 0001:0002F2BC       SplitComponentName
 0001:00030248       StFilSys
 0001:00013A28       StorableProperty
 0001:000318D0       StrEdit
 0001:00030658       StringsEdit
 0002:0000017C       StringsFileSystem
 0002:00001104       StringsFileSystemCounter
 0002:00001108       StringsFileSystemIndex
 0001:0003D6A8       Surface
 0001:000087E0       Swap
 0001:00000584       SysInit
 0001:00000AE4       SystemParametersInfo
 0001:00036708       TabDock
 0001:0001BF78       TAbstractCollectionSprig.Create
 0001:0001BF50       TAbstractSprig.Ghosted
 0001:0002F648       TActiveTStringsProperty.CreateNew
 0001:0002F6F0       TActiveTStringsProperty.Destroy
 0001:0002F768       TActiveTStringsProperty.Notification
 0001:0002F7B0       TActiveTStringsProperty.RenameComponent
 0001:0002F958       TActiveTStringsProperty.SetComponent
 0001:0002F8E0       TActiveTStringsProperty.SetModule
 0001:00004118       TBaseComponentEditor.Create
 0001:000044CC       TBaseCustomModule.Create
 0001:00004514       TBaseCustomModule.DesignClass
 0001:00035978       TBaseDockHostForm.CMDialogChar
 0001:000358E4       TBaseDockHostForm.Create
 0001:000359C8       TBaseDockHostForm.CreateDockParent
 0001:00035920       TBaseDockHostForm.Destroy
 0001:00035C70       TBaseDockHostForm.DoAddDockClient
 0001:00035C8C       TBaseDockHostForm.DoRemoveDockClient
 0001:000359CC       TBaseDockHostForm.DoUnDock
 0001:00035B50       TBaseDockHostForm.FormClose
 0001:00035CB4       TBaseDockHostForm.GetDockSiteControl
 0001:00035D78       TBaseDockHostForm.GetVisibleClientCount
 0001:00035B78       TBaseDockHostForm.ManualDockClient
 0001:00035BA0       TBaseDockHostForm.ResetCaption
 0001:00035CB8       TBaseDockHostForm.ResetStayOnTop
 0001:00035CB0       TBaseDockHostForm.SetDockable
 0001:00035A20       TBaseDockHostForm.UMFinalUndock
 0001:00035DB4       TBaseDockHostForm.UMNewClientFocused
 0001:00035E08       TBaseDockHostForm.WMActivate
 0001:000040D0       TBasePropertyEditor.Create
 0001:00004460       TBaseSelectionEditor.Create
 0001:0001F084       TBounder.Create
 0001:0001F2A8       TBounder.GetBounds
 0001:0001F3E0       TBounder.GetClientHeight
 0001:0001F40C       TBounder.GetClientWidth
 0001:0001F1B8       TBounder.GetHeight
 0001:0001F160       TBounder.GetLeft
 0001:0001F30C       TBounder.GetParent
 0001:0001F17C       TBounder.GetTop
 0001:0001F198       TBounder.GetWidth
 0001:0001F108       TBounder.Move
 0001:0001F2CC       TBounder.SetBounds
 0001:0001F274       TBounder.SetHeight
 0001:0001F1D8       TBounder.SetLeft
 0001:0001F20C       TBounder.SetTop
 0001:0001F240       TBounder.SetWidth
 0001:0001F3A8       TBounder.UpdateClientInfo
 0001:0003FAB4       TBrushStyleProperty.ListDrawValue
 0001:0003FC70       TBrushStyleProperty.ListMeasureHeight
 0001:0003FC3C       TBrushStyleProperty.ListMeasureWidth
 0001:0003FC88       TBrushStyleProperty.PropDrawName
 0001:0003FA20       TBrushStyleProperty.PropDrawValue
 0001:00040554       TCaptionProperty.GetAttributes
 0001:0000D4E4       TCharProperty.GetValue
 0001:0000D540       TCharProperty.SetValue
 0001:0001F4A0       TChildList.AddChild
 0001:0001F6D4       TChildrenList.AddChild
 0001:0001F700       TChildrenList.Create
 0001:0001F770       TChildrenList.ShouldInclude
 0001:00012C0C       TChildUpdateObjects.AddToAncestors
 0001:00012C38       TChildUpdateObjects.AddToDescendents
 0001:00012AAC       TChildUpdateObjects.Create
 0001:00012B50       TChildUpdateObjects.Destroy
 0001:00012B8C       TChildUpdateObjects.GetAncestor
 0001:00012BB0       TChildUpdateObjects.GetAncestorCount
 0001:00012BF0       TChildUpdateObjects.GetDescendentCount
 0001:00012BCC       TChildUpdateObjects.GetDescendents
 0001:0001F574       TClassPaletteItem.Create
 0001:0001F5C4       TClassPaletteItem.CreateComponent
 0001:0000DEEC       TClassProperty.GetAttributes
 0001:0000DF0C       TClassProperty.GetProperties
 0001:0000DFE0       TClassProperty.GetValue
 0001:00037618       TCmdButtonActionLink.AssignClient
 0001:0003763C       TCmdButtonActionLink.IsCheckedLinked
 0001:00037670       TCmdButtonActionLink.IsDropdownMenuLinked
 0001:000376A8       TCmdButtonActionLink.IsEnabledLinked
 0001:000376E0       TCmdButtonActionLink.IsEnableDropdownLinked
 0001:00037718       TCmdButtonActionLink.IsImageIndexLinked
 0001:00037750       TCmdButtonActionLink.IsPopupMenuLinked
 0001:00037784       TCmdButtonActionLink.SetChecked
 0001:000377A4       TCmdButtonActionLink.SetDropdownMenu
 0001:000377C4       TCmdButtonActionLink.SetEnabled
 0001:000377E4       TCmdButtonActionLink.SetEnableDropdown
 0001:00037808       TCmdButtonActionLink.SetImageIndex
 0001:00037828       TCmdButtonActionLink.SetPopupMenu
 0001:000433C4       TCollectionEditor.Activated
 0001:0004453C       TCollectionEditor.AddClick
 0001:00045064       TCollectionEditor.AMDeferUpdate
 0001:000453C0       TCollectionEditor.CanAdd
 0001:00043554       TCollectionEditor.CloseEditor
 0001:00044654       TCollectionEditor.DeleteClick
 0001:00043528       TCollectionEditor.DesignerClosed
 0001:000448B0       TCollectionEditor.FormClose
 0001:00044F8C       TCollectionEditor.FormCreate
 0001:00044FC0       TCollectionEditor.FormDestroy
 0001:00044838       TCollectionEditor.FormKeyPress
 0001:00044FF4       TCollectionEditor.FormResize
 0001:00043620       TCollectionEditor.GetItemName
 0001:000436F0       TCollectionEditor.GetRegKey
 0001:000437C0       TCollectionEditor.GetSelection
 0001:00043474       TCollectionEditor.ItemDeleted
 0001:00043588       TCollectionEditor.ItemsModified
 0001:00045004       TCollectionEditor.ListView1Change
 0001:00044828       TCollectionEditor.ListView1Click
 0001:00044DF0       TCollectionEditor.ListView1DragDrop
 0001:00044D94       TCollectionEditor.ListView1DragOver
 0001:0004533C       TCollectionEditor.ListView1KeyPress
 0001:000439BC       TCollectionEditor.LockState
 0001:00044C24       TCollectionEditor.MoveDownClick
 0001:00044AD4       TCollectionEditor.MoveUpClick
 0001:000451AC       TCollectionEditor.SelectAll
 0001:000450C4       TCollectionEditor.SelectAll1Click
 0001:0004516C       TCollectionEditor.SelectAllCommandUpdate
 0001:000439D0       TCollectionEditor.SelectionChanged
 0001:000450E0       TCollectionEditor.SelectionUpdate
 0001:00045274       TCollectionEditor.SelectNone
 0001:000439E4       TCollectionEditor.SetCollectionPropertyName
 0001:000433E4       TCollectionEditor.SetColOptions
 0001:00043AA8       TCollectionEditor.SetSelection
 0001:00043C2C       TCollectionEditor.UnlockState
 0001:00044304       TCollectionEditor.UpdateListbox
 0001:0001BA70       TCollectionItemSprig.AddType
 0001:0001BA94       TCollectionItemSprig.AddTypeCount
 0001:0001B9DC       TCollectionItemSprig.DragDropTo
 0001:0001BA38       TCollectionItemSprig.DragOverTo
 0001:0001B97C       TCollectionItemSprig.FigureParent
 0001:0001BAB8       TCollectionItemSprig.GetAddType
 0001:0001BAFC       TCollectionItemSprig.Ghosted
 0001:0001BA5C       TCollectionItemSprig.IncludeIndexInCaption
 0001:0001B9BC       TCollectionItemSprig.ItemIndex
 0001:0001B99C       TCollectionItemSprig.Name
 0001:0001BAE0       TCollectionItemSprig.Owner
 0001:000432C0       TCollectionProperty.Edit
 0001:00043370       TCollectionProperty.GetAttributes
 0001:000433A8       TCollectionProperty.GetColOptions
 0001:00043390       TCollectionProperty.GetEditorClass
 0001:0001B848       TCollectionSprig.AddType
 0001:0001B878       TCollectionSprig.AddTypeCount
 0001:0001B750       TCollectionSprig.Caption
 0001:0001B7F4       TCollectionSprig.Create
 0001:0001B71C       TCollectionSprig.CustomDelete
 0001:0001B708       TCollectionSprig.DeleteStyle
 0001:0001B8DC       TCollectionSprig.FigureChildren
 0001:0001B778       TCollectionSprig.FigureParent
 0001:0001B898       TCollectionSprig.GetAddType
 0001:0001B7AC       TCollectionSprig.Name
 0001:0001B8C0       TCollectionSprig.Owner
 0001:0001B798       TCollectionSprig.SortByIndex
 0001:0003F67C       TColorProperty.Edit
 0001:0003F728       TColorProperty.GetAttributes
 0001:0003F748       TColorProperty.GetValue
 0001:0003F768       TColorProperty.GetValues
 0001:0003F854       TColorProperty.ListDrawValue
 0001:0003F9E4       TColorProperty.ListMeasureHeight
 0001:0003F978       TColorProperty.ListMeasureWidth
 0001:0003F9FC       TColorProperty.PropDrawName
 0001:0003F780       TColorProperty.PropDrawValue
 0001:0003F9AC       TColorProperty.SetValue
 0001:00037974       TCommandButton.ActionChange
 0001:00037E98       TCommandButton.CalcButtonLayout
 0001:00038738       TCommandButton.CanAutoSize
 0001:00037CCC       TCommandButton.CheckMenuDropdown
 0001:00038884       TCommandButton.Click
 0001:0003880C       TCommandButton.CMDialogChar
 0001:0003784C       TCommandButton.Create
 0001:0003792C       TCommandButton.Destroy
 0001:00038194       TCommandButton.Draw
 0001:00037D3C       TCommandButton.DrawButtonGlyph
 0001:00037DCC       TCommandButton.DrawButtonText
 0001:00038208       TCommandButton.GetActionLinkClass
 0001:00037AF4       TCommandButton.ImageListChange
 0001:00038718       TCommandButton.IsImageIndexStored
 0001:00037B14       TCommandButton.Notification
 0001:00038210       TCommandButton.Paint
 0001:00037B90       TCommandButton.SetDisabledImages
 0001:00037BCC       TCommandButton.SetDropdownMenu
 0001:00037BF4       TCommandButton.SetEnabled
 0001:00037C28       TCommandButton.SetEnableDropDown
 0001:00037C38       TCommandButton.SetHotImages
 0001:00037B7C       TCommandButton.SetImageIndex
 0001:00037C74       TCommandButton.SetImages
 0001:00037CB0       TCommandButton.SetShowCaption
 0001:00037AEC       TCommandButton.UpdateImage
 0001:0003881C       TCommandButton.UpdateTracking
 0001:000385A0       TCommandButton.WMLButtonDblClk
 0001:000385D4       TCommandButton.WMLButtonDown
 0001:000386E4       TCommandButton.WMLButtonUp
 0001:0002B8EC       TCompInfo.ClearEvent
 0001:0002B7D4       TCompInfo.Create
 0001:0002B890       TCompInfo.Destroy
 0001:0002B970       TCompInfo.GetClassName
 0001:0002BA60       TCompInfo.GetComponentHandle
 0001:0002B9A4       TCompInfo.GetEventCount
 0001:0002B9C0       TCompInfo.GetEventInfo
 0001:0002BD34       TCompInfo.GetEventName
 0001:0002B9E4       TCompInfo.GetEventValue
 0001:0002BA7C       TCompInfo.GetNamePath
 0001:0002BC60       TCompInfo.GetSubInfo
 0001:0002BC10       TCompInfo.GetSubInfoCount
 0001:0002BAA0       TCompInfo.InitSubList
 0001:000413E4       TComponentContainer.CreateParams
 0001:00041334       TComponentContainer.WMHScroll
 0001:0004138C       TComponentContainer.WMVScroll
 0001:0002A098       TComponentDesigner.CancelModes
 0001:0002A0BC       TComponentDesigner.CopySelectionToStream
 0001:0002A0F0       TComponentDesigner.Create
 0001:0002A154       TComponentDesigner.DesignerOptionsChanged
 0001:0002A200       TComponentDesigner.EditAction
 0001:0002A234       TComponentDesigner.FindBaseClass
 0001:0002A2C4       TComponentDesigner.FindCustomModuleClass
 0001:0002A33C       TComponentDesigner.FindFile
 0001:0002A4CC       TComponentDesigner.FindRoot
 0001:0002A404       TComponentDesigner.FindRoot
 0001:0002A57C       TComponentDesigner.GetActiveRoot
 0001:0002A59C       TComponentDesigner.GetClassUnits
 0001:0002A6A8       TComponentDesigner.GetControlsLocked
 0001:0002A6C4       TComponentDesigner.GetEditState
 0001:0002A700       TComponentDesigner.GetFirstSelectionClass
 0001:0002A744       TComponentDesigner.GetFirstSelectionType
 0001:0002A7A4       TComponentDesigner.GetProperties
 0001:0002A828       TComponentDesigner.GetRootNames
 0001:0002A8E8       TComponentDesigner.GetRoots
 0001:0002A960       TComponentDesigner.GetRootsCount
 0001:0002A980       TComponentDesigner.GetSelection
 0001:0002A9D4       TComponentDesigner.GetSelectionName
 0001:0002AA20       TComponentDesigner.GetSelectionType
 0001:0002AA7C       TComponentDesigner.HideWindows
 0001:0002ABA4       TComponentDesigner.IsNestable
 0001:0002AC44       TComponentDesigner.IsRootBaseClass
 0001:0002ACB4       TComponentDesigner.ModalEditDone
 0001:0002ACCC       TComponentDesigner.OpenRootClass
 0001:0002ADC0       TComponentDesigner.PasteSelectionFromStream
 0001:0002ADF8       TComponentDesigner.RemoveDependenciesOn
 0001:0002AEA8       TComponentDesigner.RootActivated
 0001:0002AF64       TComponentDesigner.RootGoingDormant
 0001:0002AF94       TComponentDesigner.RootListAdd
 0001:0002AFB4       TComponentDesigner.RootListRemove
 0001:0002AFF8       TComponentDesigner.RootModified
 0001:0002B0D0       TComponentDesigner.SetControlsLocked
 0001:0002B188       TComponentDesigner.SetSelection
 0001:0002B3AC       TComponentDesigner.ShowWindows
 0001:0002B4D4       TComponentDesigner.UpdateRootDependents
 0001:0002B580       TComponentDesigner.UpdateSelections
 0001:0000FD88       TComponentEditor.Copy
 0001:0000FC58       TComponentEditor.Create
 0001:0000FCF0       TComponentEditor.Edit
 0001:0000FD78       TComponentEditor.ExecuteVerb
 0001:0000FD10       TComponentEditor.GetComponent
 0001:0000FD2C       TComponentEditor.GetDesigner
 0001:0000FD64       TComponentEditor.GetVerb
 0001:0000FD4C       TComponentEditor.GetVerbCount
 0001:0000FD94       TComponentEditor.IsInInlined
 0001:0000FDB8       TComponentEditor.PrepareItem
 0001:0002D0D8       TComponentItem.Create
 0001:0002D128       TComponentItem.FlipChildren
 0001:0002D134       TComponentItem.GetComponent
 0001:0002D150       TComponentItem.Selectable
 0001:0002D1C4       TComponentItem.ValidateDeletable
 0001:0002D210       TComponentItem.ZOrder
 0001:0000DAB4       TComponentNameProperty.GetAttributes
 0001:0000DAD4       TComponentNameProperty.GetEditLimit
 0001:00049858       TComponentObserver.Create
 0001:000498AC       TComponentObserver.Notification
 0001:0000E340       TComponentProperty.AllEqual
 0001:0000E024       TComponentProperty.Edit
 0001:0000E40C       TComponentProperty.FilterFunc
 0001:0000E088       TComponentProperty.GetAttributes
 0001:0000E3F0       TComponentProperty.GetComponentReference
 0001:0000E264       TComponentProperty.GetEditLimit
 0001:0000E194       TComponentProperty.GetProperties
 0001:0000E110       TComponentProperty.GetSelections
 0001:0000E27C       TComponentProperty.GetValue
 0001:0000E2A8       TComponentProperty.GetValues
 0001:0000E2D4       TComponentProperty.SetValue
 0001:0001F8C4       TComponentRoot.AddClassProps
 0001:00025B28       TComponentRoot.AddImportedRoot
 0001:00029140       TComponentRoot.Align
 0001:00029874       TComponentRoot.AlignToGrid
 0001:00020918       TComponentRoot.BeforeDestruction
 0001:00029780       TComponentRoot.BringToFront
 0001:00027824       TComponentRoot.CanModify
 0001:00029FB8       TComponentRoot.CanRevert
 0001:000278E4       TComponentRoot.CanRevert
 0001:00027924       TComponentRoot.CanUndelete
 0001:00026824       TComponentRoot.ChainCall
 0001:00026EA0       TComponentRoot.CheckFileDate
 0001:0001FA08       TComponentRoot.ClearDependencies
 0001:0001FC14       TComponentRoot.ClearDependenciesOn
 0001:0001F9CC       TComponentRoot.ClearDependents
 0001:00026854       TComponentRoot.ClearSelection
 0001:00028A74       TComponentRoot.Close
 0001:0002804C       TComponentRoot.Command
 0001:0001FD04       TComponentRoot.CompIndexToComponent
 0001:0001FD3C       TComponentRoot.ComponentRead
 0001:0001FE40       TComponentRoot.ComponentReadAdjust
 0001:0001FE78       TComponentRoot.CopySelectionToStream
 0001:00020024       TComponentRoot.Create
 0001:00025FF0       TComponentRoot.CreateComponent
 0001:000203A0       TComponentRoot.CreateComponent
 0001:0002611C       TComponentRoot.CreateCurrentComponent
 0001:00020408       TComponentRoot.CreateFromStream
 0001:0002515C       TComponentRoot.CreateMethod
 0001:00020530       TComponentRoot.CreateRootAs
 0001:000205B8       TComponentRoot.CreateRootInstance
 0001:00026974       TComponentRoot.DeleteSelection
 0001:00028968       TComponentRoot.Deleting
 0001:0002086C       TComponentRoot.Destroy
 0001:000280E4       TComponentRoot.Dialog
 0001:0002096C       TComponentRoot.DoCreateComponent
 0001:00027944       TComponentRoot.DoUndelete
 0001:00027BB4       TComponentRoot.DoViewAsText
 0001:00026760       TComponentRoot.Edit
 0001:000240B0       TComponentRoot.EditComponent
 0001:00029C04       TComponentRoot.EnsureSelectableComponents
 0001:00020E3C       TComponentRoot.FindAncestorRoot
 0001:00020EEC       TComponentRoot.FindCompClass
 0001:00020F4C       TComponentRoot.FindCurrentParent
 0001:00020FA4       TComponentRoot.FindCurrentParentItem
 0001:000279DC       TComponentRoot.FindGlobalComponent
 0001:00021028       TComponentRoot.FindItemParent
 0001:00021144       TComponentRoot.FindObjectMethod
 0001:0002815C       TComponentRoot.FindSelection
 0001:00021188       TComponentRoot.ForceCommonParent
 0001:00026F28       TComponentRoot.FormFileOpen
 0001:00022668       TComponentRoot.FrameCreateComponent
 0001:00026294       TComponentRoot.GetAncestorDesigner
 0001:000212A8       TComponentRoot.GetAncestorName
 0001:00029CB8       TComponentRoot.GetBaseRegKey
 0001:00021344       TComponentRoot.GetCompCount
 0001:00021364       TComponentRoot.GetCompInfo
 0001:000214C4       TComponentRoot.GetCompName
 0001:00025B4C       TComponentRoot.GetComponent
 0001:00028A54       TComponentRoot.GetComponentDesigner
 0001:00027A38       TComponentRoot.GetComponentEditor
 0001:00025C88       TComponentRoot.GetComponentName
 0001:0002599C       TComponentRoot.GetComponentNames
 0001:000215DC       TComponentRoot.GetComponentRootFor
 0001:00021540       TComponentRoot.GetComponentRootFor
 0001:00021678       TComponentRoot.GetCreateInfoFrom
 0001:00027ADC       TComponentRoot.GetCustomModule
 0001:00028770       TComponentRoot.GetCustomModuleClass
 0001:000217D4       TComponentRoot.GetDependencies
 0001:00021880       TComponentRoot.GetDependentRoots
 0001:00021934       TComponentRoot.GetDesignClassName
 0001:00021988       TComponentRoot.GetEnvironment
 0001:00026F58       TComponentRoot.GetFileName
 0001:000219AC       TComponentRoot.GetFileSystem
 0001:000219CC       TComponentRoot.GetFormEditor
 0001:00029D68       TComponentRoot.GetIDEOptions
 0001:00026258       TComponentRoot.GetIsDormant
 0001:0002813C       TComponentRoot.GetLocked
 0001:000251C8       TComponentRoot.GetMethodName
 0001:00025224       TComponentRoot.GetMethods
 0001:00026F78       TComponentRoot.GetModifyTime
 0001:00021A38       TComponentRoot.GetModule
 0001:00025D60       TComponentRoot.GetObject
 0001:00025D84       TComponentRoot.GetObjectName
 0001:00025E94       TComponentRoot.GetObjectNames
 0001:00028180       TComponentRoot.GetPaletteItem
 0001:00029D10       TComponentRoot.GetPathAndBaseExeName
 0001:0002524C       TComponentRoot.GetPrivateDirectory
 0001:00026274       TComponentRoot.GetProjectModules
 0001:00025094       TComponentRoot.GetRoot
 0001:00021A58       TComponentRoot.GetRootBaseClass
 0001:00021B1C       TComponentRoot.GetRootClass
 0001:00026E6C       TComponentRoot.GetRootClassName
 0001:00021B4C       TComponentRoot.GetRootName
 0001:00021B88       TComponentRoot.GetRootStream
 0001:000262D8       TComponentRoot.GetScrollRanges
 0001:00029C64       TComponentRoot.GetSelectableComponentCount
 0001:00029C8C       TComponentRoot.GetSelectableComponents
 0001:00027AFC       TComponentRoot.GetSelection
 0001:00027B24       TComponentRoot.GetSelectionEditors
 0001:000252A4       TComponentRoot.GetSelections
 0001:00027B98       TComponentRoot.GetTextDFM
 0001:00026F94       TComponentRoot.GetTimeAtLoad
 0001:00024D3C       TComponentRoot.GetUnits
 0001:0002878C       TComponentRoot.GetUpdateManager
 0001:00021C90       TComponentRoot.GoDormant
 0001:00029AC0       TComponentRoot.HasSelectableChildren
 0001:0002507C       TComponentRoot.Implementor
 0001:00027198       TComponentRoot.InstanceInserted
 0001:00027298       TComponentRoot.InstanceRemoved
 0001:0002639C       TComponentRoot.InternalDeinitializeDesigner
 0001:00026528       TComponentRoot.InternalInitializeDesigner
 0001:000261FC       TComponentRoot.IsComponentHidden
 0001:00025EF8       TComponentRoot.IsComponentLinkable
 0001:00021D90       TComponentRoot.IsDormant
 0001:00021DB0       TComponentRoot.IsFrame
 0001:00026C6C       TComponentRoot.IsRootSelected
 0001:000262B8       TComponentRoot.IsSourceReadOnly
 0001:00021FD4       TComponentRoot.IterateMethods
 0001:0002201C       TComponentRoot.LoadDependentModules
 0001:0002621C       TComponentRoot.MakeComponentLinkable
 0001:00025328       TComponentRoot.MethodExists
 0001:00025EB8       TComponentRoot.MethodFromAncestor
 0001:000299CC       TComponentRoot.ModalEdit
 0001:00028A28       TComponentRoot.ModifiableFrame
 0001:000221B4       TComponentRoot.Modified
 0001:000220F8       TComponentRoot.ModifiedUpdateNotification
 0001:00026D2C       TComponentRoot.ModuleFileNames
 0001:00026CC8       TComponentRoot.NoSelection
 0001:000222F4       TComponentRoot.PasteSelectionFromStream
 0001:00022340       TComponentRoot.PrepareInputStream
 0001:000223F8       TComponentRoot.ReaderAncestorNotFound
 0001:000229AC       TComponentRoot.ReaderCreateComponent
 0001:000229D8       TComponentRoot.ReaderFindComponentClass
 0001:00022BA0       TComponentRoot.ReaderFindMethod
 0001:00022BD8       TComponentRoot.ReaderObjectError
 0001:00022D20       TComponentRoot.ReaderReferenceName
 0001:00022C4C       TComponentRoot.ReaderSetName
 0001:00022D54       TComponentRoot.ReadObjectFromStream
 0001:0002308C       TComponentRoot.ReadStream
 0001:000232B0       TComponentRoot.RemoveDependenciesOn
 0001:000232D4       TComponentRoot.RemoveDependentLinks
 0001:00026FB0       TComponentRoot.Rename
 0001:000232F4       TComponentRoot.RenameComponent
 0001:00023448       TComponentRoot.RenameEvents
 0001:000235BC       TComponentRoot.RenameMethod
 0001:0002996C       TComponentRoot.RenameRootMethod
 0001:000235E4       TComponentRoot.Resurrect
 0001:000236C8       TComponentRoot.ResurrectDependentModules
 0001:000237D8       TComponentRoot.Revert
 0001:00027078       TComponentRoot.Save
 0001:000238E0       TComponentRoot.Select
 0001:000296DC       TComponentRoot.SelectAll
 0001:0002534C       TComponentRoot.SelectComponent
 0001:000280C0       TComponentRoot.SelectComponent
 0001:000250E8       TComponentRoot.SelectedComponent
 0001:000250B0       TComponentRoot.SelectedPersistent
 0001:000275A0       TComponentRoot.SelectionsChanged
 0001:00029A2C       TComponentRoot.SelectItemName
 0001:00022E60       TComponentRoot.SelectReadStream
 0001:00029794       TComponentRoot.SendToBack
 0001:000270EC       TComponentRoot.SetActive
 0001:00027168       TComponentRoot.SetControlsLocked
 0001:000239E0       TComponentRoot.SetCreateInfo
 0001:00023AD8       TComponentRoot.SetFileSystem
 0001:00023AF8       TComponentRoot.SetRootName
 0001:00023B20       TComponentRoot.SetSelection
 0001:00025440       TComponentRoot.SetSelections
 0001:00025654       TComponentRoot.ShowHelp
 0001:00025508       TComponentRoot.ShowMethod
 0001:0002949C       TComponentRoot.Size
 0001:00025128       TComponentRoot.SpecialPropertyHelp
 0001:00023E58       TComponentRoot.StreamSelection
 0001:00023F68       TComponentRoot.UniqueName
 0001:000288C4       TComponentRoot.Updated
 0001:00024458       TComponentRoot.UpdateDependencies
 0001:00024684       TComponentRoot.UpdateEvents
 0001:000287AC       TComponentRoot.UpdateManagerCreateComponent
 0001:000246A8       TComponentRoot.UpdateOptions
 0001:0002891C       TComponentRoot.Updating
 0001:00020944       TComponentRoot.ValidateComponent
 0001:00024808       TComponentRoot.ValidateInheritence
 0001:00029A84       TComponentRoot.ValidateModification
 0001:000283B0       TComponentRoot.ValidateRename
 0001:00024938       TComponentRoot.VerifyEvents
 0001:00028938       TComponentRoot.WriteComponent
 0001:00024F24       TComponentRoot.WriterFindAncestor
 0001:00024CF0       TComponentRoot.WriteRootStream
 0001:000297A8       TComponentRoot.ZOrder
 0001:00048F84       TComponentRootItem.Create
 0001:0004900C       TComponentRootItem.GetBoundsRect
 0001:00049004       TComponentRootItem.GetControl
 0001:00049008       TComponentRootItem.GetWinControl
 0001:00049020       TComponentRootItem.GlobalToLocal
 0001:0004903C       TComponentRootItem.Invalidate
 0001:00049048       TComponentRootItem.IsContainer
 0001:0004904C       TComponentRootItem.LocalToGlobal
 0001:00049068       TComponentRootItem.SetParent
 0001:0004906C       TComponentRootItem.Show
 0001:0001BE34       TComponentSprig.Create
 0001:0001BDE0       TComponentSprig.Create
 0001:0001BE90       TComponentSprig.Owner
 0001:0001BEAC       TComponentSprig.UniqueName
 0001:00049360       TComponentToolWindow.Create
 0001:000493A8       TComponentToolWindow.WndProc
 0001:00048E1C       TContainedComponentItem.Create
 0001:00048EA8       TContainedComponentItem.GetBoundsRect
 0001:00048EBC       TContainedComponentItem.GetExtendedRect
 0001:00048F18       TContainedComponentItem.GetParent
 0001:00048F2C       TContainedComponentItem.GlobalToLocal
 0001:00048F48       TContainedComponentItem.Invalidate
 0001:00048F54       TContainedComponentItem.LocalToGlobal
 0001:00048F70       TContainedComponentItem.SetBoundsRect
 0001:00048F7C       TContainedComponentItem.SetParent
 0001:00048F80       TContainedComponentItem.Show
 0001:000498E4       TContainer.Create
 0001:000499B8       TContainer.Destroy
 0001:00049A50       TContainer.GetBoundsRect
 0001:00049E8C       TContainer.GetContainer
 0001:00049A8C       TContainer.GetLeft
 0001:00049A84       TContainer.GetShowCaption
 0001:00049A28       TContainer.Position
 0001:00049AA4       TContainer.SetBoundsRect
 0001:00049B50       TContainer.SetLeft
 0001:00049AEC       TContainer.SetShowCaption
 0001:00049A00       TContainer.Sync
 0001:00049A18       TContainer.Update
 0001:00049B74       TContainer.WndProc
 0001:000494EC       TContainerCaption.Create
 0001:00049550       TContainerCaption.Destroy
 0001:00049794       TContainerCaption.GetContainer
 0001:00049694       TContainerCaption.Position
 0001:00049780       TContainerCaption.Sync
 0001:00049580       TContainerCaption.Update
 0001:000495A4       TContainerCaption.WndProc
 0001:00048A5C       TControlItem.Create
 0001:00048AA4       TControlItem.GetBoundsRect
 0001:00048AB8       TControlItem.GetControl
 0001:00048ABC       TControlItem.GetParent
 0001:00048B00       TControlItem.GlobalToLocal
 0001:00048B1C       TControlItem.Invalidate
 0001:00048B28       TControlItem.LocalToGlobal
 0001:00048B44       TControlItem.SetBoundsRect
 0001:00048B50       TControlItem.SetParent
 0001:00048B78       TControlItem.Show
 0001:00048B84       TControlItem.ZOrder
 0001:00046BEC       TControlSprig.Create
 0001:00046C30       TControlSprig.DragDropTo
 0001:00046C68       TControlSprig.DragOverTo
 0001:00046CA0       TControlSprig.PaletteOverTo
 0001:0003FF6C       TCursorProperty.GetAttributes
 0001:0003FF8C       TCursorProperty.GetValue
 0001:0003FFAC       TCursorProperty.GetValues
 0001:0003FFFC       TCursorProperty.ListDrawValue
 0001:000400EC       TCursorProperty.ListMeasureHeight
 0001:000400C0       TCursorProperty.ListMeasureWidth
 0001:0003FFC4       TCursorProperty.SetValue
 0001:0003B934       TCustomEditorView.Display
 0001:0003B948       TCustomEditorView.EditAction
 0001:0003B91C       TCustomEditorView.GetCaption
 0001:0003B964       TCustomEditorView.GetEditState
 0001:0003B9C0       TCustomEditorView.GetPriority
 0001:0003B98C       TCustomEditorView.GetStyle
 0001:0003B9A8       TCustomEditorView.Handles
 0001:0003B0C4       TCustomEditorViewInfo.Create
 0001:0003B130       TCustomEditorViewInfo.GetHasViewClass
 0001:0003B164       TCustomEditorViewInfo.GetViewClass
 0001:0003B1F4       TCustomEditorViewList.Add
 0001:0003B224       TCustomEditorViewList.Add
 0001:0003B25C       TCustomEditorViewList.Count
 0001:0003B278       TCustomEditorViewList.Create
 0001:0003B2CC       TCustomEditorViewList.Destroy
 0001:0003B308       TCustomEditorViewList.FreeEditorGroup
 0001:0003B358       TCustomEditorViewList.GetCustomEditorView
 0001:0003B384       TCustomEditorViewList.GetFileCustomEditorView
 0001:0003B408       TCustomEditorViewList.GetViewClass
 0001:0003B434       TCustomEditorViewList.Remove
 0001:0003B488       TCustomEditorViewList.Remove
 0001:00046FC4       TCustomFormRootSprig.Create
 0001:00010934       TCustomModule.Create
 0001:00010998       TCustomModule.Destroy
 0001:000109D4       TCustomModule.ExecuteVerb
 0001:000109E4       TCustomModule.GetAttributes
 0001:00010A00       TCustomModule.GetVerb
 0001:00010A1C       TCustomModule.GetVerbCount
 0001:00010A34       TCustomModule.Nestable
 0001:00010A48       TCustomModule.PrepareItem
 0001:00010A5C       TCustomModule.Saving
 0001:00010A68       TCustomModule.ValidateComponent
 0001:00010ACC       TCustomModule.ValidateComponentClass
 0001:0001EA94       TCustomModuleReg.Create
 0001:0001EAF8       TCustomModuleReg.GetBaseClassName
 0001:00036F80       TCustomPopupAction.SetDropdownMenu
 0001:00036FE4       TCustomPopupAction.SetEnableDropdown
 0001:00037048       TCustomPopupAction.SetPopupMenu
 0001:000370F4       TCustomSubMenuAction.PopulateSubMenu
 0001:00041918       TDataModuleCustomModule.CreateDesignerForm
 0001:00041958       TDataModuleCustomModule.DesignClass
 0001:000418C8       TDataModuleCustomModule.ValidateComponentClass
 0001:00041408       TDataModuleForm.Create
 0001:00041808       TDataModuleForm.DesignerClosed
 0001:00041838       TDataModuleForm.DesignerOpened
 0001:0004156C       TDataModuleForm.Destroy
 0001:00041724       TDataModuleForm.FormResize
 0001:00041970       TDataModuleForm.GetContainer
 0001:0004198C       TDataModuleForm.GetRoot
 0001:00041864       TDataModuleForm.ItemDeleted
 0001:00041878       TDataModuleForm.ItemInserted
 0001:0004188C       TDataModuleForm.ItemsModified
 0001:000418B4       TDataModuleForm.SelectionChanged
 0001:000415B0       TDataModuleForm.UpdateDesigner
 0001:000417EC       TDataModuleForm.WMMove
 0001:00047008       TDataModuleRootSprig.AcceptsClass
 0001:00047038       TDataModuleRootSprig.Create
 0001:0004707C       TDataModuleRootSprig.DragOver
 0001:000470BC       TDataModuleRootSprig.PaletteOver
 0001:0002BEBC       TDatedStreamAdapter.Create
 0001:0002BF14       TDatedStreamAdapter.GetModifyTime
 0001:0002BF30       TDatedStreamAdapter.SetModifyTime
 0001:0000EED4       TDateProperty.GetAttributes
 0001:0000EEF4       TDateProperty.GetValue
 0001:0000EF3C       TDateProperty.SetValue
 0001:0000F024       TDateTimeProperty.GetAttributes
 0001:0000F044       TDateTimeProperty.GetValue
 0001:0000F08C       TDateTimeProperty.SetValue
 0001:0000FDCC       TDefaultEditor.CheckEdit
 0001:0000FFA0       TDefaultEditor.Edit
 0001:0000FE34       TDefaultEditor.EditProperty
 0001:00007C74       TDesigner.BeginSelect
 0001:00007C8C       TDesigner.CancelDragging
 0001:00007CA0       TDesigner.ClearSelection
 0001:00007CB8       TDesigner.Close
 0001:00007CEC       TDesigner.Create
 0001:00007DE0       TDesigner.DeleteSelection
 0001:00007E00       TDesigner.Destroy
 0001:00007E34       TDesigner.DoDragCreate
 0001:00007E9C       TDesigner.DoDragMove
 0001:00007F54       TDesigner.DoDragSelect
 0001:00008034       TDesigner.DoDragSize
 0001:000080B0       TDesigner.DragBegin
 0001:00008160       TDesigner.DragBoxesMoveTo
 0001:000081B8       TDesigner.DragBoxesOff
 0001:000081E4       TDesigner.DragBoxesOn
 0001:000082E4       TDesigner.DragCancel
 0001:00008304       TDesigner.DragEnd
 0001:0000840C       TDesigner.DragTo
 0001:0000846C       TDesigner.Edit
 0001:00008484       TDesigner.EndSelect
 0001:0000849C       TDesigner.FindNearestItem
 0001:00008718       TDesigner.ForceCommonSelectParent
 0001:000087C0       TDesigner.Free
 0001:00008880       TDesigner.GetDragRect
 0001:00008B98       TDesigner.GetGridAligned
 0001:00008B74       TDesigner.GetGridSize
 0001:00008BB4       TDesigner.GetLocked
 0001:00008BD0       TDesigner.IsDesignerSelected
 0001:00008F44       TDesigner.Key
 0001:00009004       TDesigner.Lock
 0001:00009020       TDesigner.Modified
 0001:00009040       TDesigner.MouseDown
 0001:00009428       TDesigner.MouseMove
 0001:00009454       TDesigner.MouseUp
 0001:000094BC       TDesigner.MoveBy
 0001:00009600       TDesigner.PointToGrid
 0001:00009668       TDesigner.Select
 0001:0000973C       TDesigner.SelectedItem
 0001:00009778       TDesigner.SetGridAligned
 0001:00009794       TDesigner.SetGridSize
 0001:000097B8       TDesigner.SnapToGrid
 0001:00009824       TDesigner.Unlock
 0001:0004D344       TDesignerHintWindow.Create
 0001:0004D388       TDesignerHintWindow.IsHintMsg
 0001:0002C648       TDesigners.ActivateDesigner
 0001:0002C7A8       TDesigners.AddDesigner
 0001:0002C890       TDesigners.DesignerActive
 0001:0002C8E0       TDesigners.DesignerFromExtension
 0001:0002C94C       TDesigners.DesignerIndex
 0001:0002C9A4       TDesigners.DesignerOptionsChanged
 0001:0002C9E4       TDesigners.FindFile
 0001:0002CA3C       TDesigners.GetActiveDesigner
 0001:0002CA5C       TDesigners.GetAlignable
 0001:0002CAE4       TDesigners.GetControlsLocked
 0001:0002CB14       TDesigners.GetFirstSelectionType
 0001:0002CB48       TDesigners.GetProperties
 0001:0002CB70       TDesigners.GetSelection
 0001:0002CB98       TDesigners.HideWindows
 0001:0002CBD8       TDesigners.RegisteredExtensions
 0001:0002CBFC       TDesigners.RemoveDesigner
 0001:0002CCD8       TDesigners.RemoveRoot
 0001:0002CD00       TDesigners.RootComponentClass
 0001:0002CD50       TDesigners.SetControlsLocked
 0001:0002CD98       TDesigners.SetProjectName
 0001:0002CDA8       TDesigners.SetSelection
 0001:0002CDE0       TDesigners.ShowComponentHelp
 0001:0002CE48       TDesigners.ShowWindows
 0001:0002CE88       TDesigners.SpecialPropertyHelp
 0001:000041BC       TDesignerSelections.Add
 0001:000041E0       TDesignerSelections.Copy
 0001:00004258       TDesignerSelections.Create
 0001:000042AC       TDesignerSelections.Destroy
 0001:000042E8       TDesignerSelections.Equals
 0001:00004358       TDesignerSelections.Get
 0001:0000437C       TDesignerSelections.GetCount
 0001:00049078       TDesignerToolWindow.Create
 0001:00049124       TDesignerToolWindow.CreateHandle
 0001:000490D8       TDesignerToolWindow.Destroy
 0001:00049354       TDesignerToolWindow.EnsureHandle
 0001:0004923C       TDesignerToolWindow.Invalidate
 0001:00049288       TDesignerToolWindow.MainWndProc
 0001:0004924C       TDesignerToolWindow.Sync
 0001:000492D8       TDesignerToolWindow.WndProc
 0001:0003D45C       TDesignSurface.AddListener
 0001:0003D470       TDesignSurface.AlignToGrid
 0001:0003D47C       TDesignSurface.AppAlignDialog
 0001:0003D488       TDesignSurface.AppCreationOrderDialog
 0001:0003D494       TDesignSurface.AppFlipChildrenAll
 0001:0003D4A0       TDesignSurface.AppFlipChildrenSelected
 0001:0003D4AC       TDesignSurface.AppSaveTemplateDialog
 0001:0003D4B8       TDesignSurface.AppScaleDialog
 0001:0003D4C4       TDesignSurface.AppSizeDialog
 0001:0003D4D0       TDesignSurface.AppTabOrderDialog
 0001:0003D4DC       TDesignSurface.AppTextDFM
 0001:0003D4E8       TDesignSurface.AppViewAsText
 0001:0003D4F4       TDesignSurface.Close
 0001:0003D504       TDesignSurface.CreateItem
 0001:0003D538       TDesignSurface.DeleteSelection
 0001:0003D544       TDesignSurface.Destroy
 0001:0003D598       TDesignSurface.DestroyItem
 0001:0003D5A0       TDesignSurface.GetDesignRoot
 0001:0003D5A4       TDesignSurface.GetGrabHandles
 0001:0003D5B8       TDesignSurface.GetIsControl
 0001:0003D5BC       TDesignSurface.GetItems
 0001:0003D5E0       TDesignSurface.GetItemsCount
 0001:0003D5EC       TDesignSurface.GetRoot
 0001:0003D600       TDesignSurface.GridSnapDisabled
 0001:0003D604       TDesignSurface.InstanceInserted
 0001:0003D610       TDesignSurface.InstanceRemoved
 0001:0003D61C       TDesignSurface.Modified
 0001:0003D628       TDesignSurface.RemoveListener
 0001:0003D638       TDesignSurface.RevertComponent
 0001:0003D644       TDesignSurface.SelectionVerb
 0001:0003D674       TDesignSurface.SetInitializing
 0001:0003D648       TDesignSurface.SetIsControl
 0001:0003D64C       TDesignSurface.UniqueName
 0001:0003D668       TDesignSurface.ValidateModification
 0001:00041F1C       TDesignWindow.Activated
 0001:00041F74       TDesignWindow.ActivateInspector
 0001:00041FA8       TDesignWindow.ClipboardComponents
 0001:000421D8       TDesignWindow.ComponentRead
 0001:00042060       TDesignWindow.CopyComponents
 0001:00041DE8       TDesignWindow.Create
 0001:000423D0       TDesignWindow.DesignerClosed
 0001:000423E4       TDesignWindow.DesignerOpened
 0001:00041ED8       TDesignWindow.Destroy
 0001:00042168       TDesignWindow.EditAction
 0001:00042148       TDesignWindow.GetEditState
 0001:000423A8       TDesignWindow.ItemDeleted
 0001:000423BC       TDesignWindow.ItemInserted
 0001:000423F8       TDesignWindow.ItemsModified
 0001:00042288       TDesignWindow.PasteComponents
 0001:000421FC       TDesignWindow.ReaderSetName
 0001:00042358       TDesignWindow.SelectionChanged
 0001:0004236C       TDesignWindow.SetSelection
 0001:00042408       TDesignWindow.UniqueName
 0001:00042180       TDesignWindow.WindowHide
 0001:000421A4       TDesignWindow.WindowShow
 0001:00041F28       TDesignWindow.WMActivate
 0001:00032BE4       TDesktopForm.CMShowingChanged
 0001:00031D40       TDesktopForm.Create
 0001:00032A08       TDesktopForm.DoMainFormShown
 0001:00031D88       TDesktopForm.EditAction
 0001:00032470       TDesktopForm.FormCreate
 0001:000324D8       TDesktopForm.FormDestroy
 0001:00031DE8       TDesktopForm.GetEditState
 0001:000327B8       TDesktopForm.LoadDockClients
 0001:00032580       TDesktopForm.LoadDockStream
 0001:000320AC       TDesktopForm.LoadWindowState
 0001:00032A0C       TDesktopForm.LockUpdates
 0001:000329FC       TDesktopForm.MainFormMadeVisible
 0001:00032C24       TDesktopForm.Repaint
 0001:00032938       TDesktopForm.SaveDockClients
 0001:00032674       TDesktopForm.SaveDockStream
 0001:00031E4C       TDesktopForm.SaveWindowState
 0001:00032A74       TDesktopForm.UnlockUpdates
 0001:00032BF4       TDesktopForm.ZoomWindow
 0001:000346E8       TDesktopFormClassItem.Create
 0001:0003474C       TDesktopFormClassItem.Destroy
 0001:00034780       TDesktopFormClassItem.LoadWindow
 0001:00034814       TDesktopFormClassItem.SaveWindow
 0001:0003458C       TDesktopProcs.Add
 0001:00034510       TDesktopProcs.Create
 0001:00034554       TDesktopProcs.Destroy
 0001:00034610       TDesktopProcs.DoLoad
 0001:00034644       TDesktopProcs.DoSave
 0001:0003468C       TDesktopProcs.Find
 0001:000346C4       TDesktopProcs.Remove
 0001:00034F88       TDockableForm.CMDockClient
 0001:00034E1C       TDockableForm.Create
 0001:00034E78       TDockableForm.CreateDockParent
 0001:00034E58       TDockableForm.CreateParams
 0001:00035470       TDockableForm.DockableCmdExecute
 0001:00035484       TDockableForm.DockableCmdUpdate
 0001:00035014       TDockableForm.DockOver
 0001:000351E0       TDockableForm.ForceShow
 0001:00035174       TDockableForm.FormCreate
 0001:000351F8       TDockableForm.FormGetSiteInfo
 0001:00034FA8       TDockableForm.GetTabDockRect
 0001:000353C0       TDockableForm.LoadWindowState
 0001:00035310       TDockableForm.SaveWindowState
 0001:000352AC       TDockableForm.SetDockable
 0001:000354A8       TDockableForm.StayOnTopCmdExecute
 0001:00035534       TDockableForm.StayOnTopCmdUpdate
 0001:0003528C       TDockableForm.ToggleDockable
 0001:0003555C       TDockableForm.WMMouseActivate
 0001:000355B8       TDockableForm.ZoomWindowCmdExecute
 0001:00039464       TDockableToolbarForm.FormCreate
 0001:00039A90       TDockableToolbarForm.FormDestroy
 0001:000395BC       TDockableToolbarForm.GetLargeButtons
 0001:0003974C       TDockableToolbarForm.ResizeButtons
 0001:000395CC       TDockableToolbarForm.SetLargeButtons
 0001:00039668       TDockableToolbarForm.Splitter1CanResize
 0001:000396A4       TDockableToolbarForm.Splitter1Moved
 0001:00039A34       TDockableToolbarForm.TextLabelsCmdExecute
 0001:00039A6C       TDockableToolbarForm.TextLabelsCmdUpdate
 0001:00039960       TDockableToolbarForm.ToolbarCmdExecute
 0001:00039A48       TDockableToolbarForm.ToolbarCmdUpdate
 0001:00033300       TDockPanel.CMFloat
 0001:00033264       TDockPanel.Create
 0001:000332E8       TDockPanel.CreateParams
 0001:0003341C       TDockPanel.Dock
 0001:00033370       TDockPanel.DockTrackNoTarget
 0001:000333A8       TDockPanel.DrawDragDockImage
 0001:00033410       TDockPanel.EraseDragDockImage
 0001:000332F8       TDockPanel.GetFloatingDockSiteClass
 0001:00033308       TDockPanel.WMGetText
 0001:00033334       TDockPanel.WMGetTextLength
 0001:00033414       TDockPanel.WMNCHitTest
 0001:0003334C       TDockPanel.WMSetText
 0001:0004E59C       TDragNilTarget.DragDrop
 0001:0004E590       TDragNilTarget.DragOver
 0001:0001B5E8       TDragSprigs.Add
 0001:0001B6C4       TDragSprigs.Count
 0001:0001B608       TDragSprigs.Create
 0001:0001B664       TDragSprigs.Destroy
 0001:0001B6A0       TDragSprigs.GetSprig
 0001:00004558       TDragTarget.Create
 0001:0004E614       TDragTargetEntry.Create
 0001:00011CDC       TEditActionSelectionEditor.EditAction
 0001:00011D8C       TEditActionSelectionEditor.GetEditState
 0001:00011810       TEditActionSelectionEditor.GetVerb
 0001:0001184C       TEditActionSelectionEditor.GetVerbCount
 0001:00011C6C       TEditActionSelectionEditor.HandleCopy
 0001:00011C50       TEditActionSelectionEditor.HandleCut
 0001:00011CA4       TEditActionSelectionEditor.HandleDelete
 0001:00011C88       TEditActionSelectionEditor.HandlePaste
 0001:00011CC0       TEditActionSelectionEditor.HandleSelectAll
 0001:00011C18       TEditActionSelectionEditor.HandleToBack
 0001:00011BFC       TEditActionSelectionEditor.HandleToFront
 0001:00011C34       TEditActionSelectionEditor.HandleUndo
 0001:00011864       TEditActionSelectionEditor.PrepareItem
 0001:0003345C       TEditorDockPanel.AdjustPosition
 0001:00033548       TEditorDockPanel.CMDockNotification
 0001:00033610       TEditorDockPanel.CMUnDockClient
 0001:00033678       TEditorDockPanel.DockDrop
 0001:000336F4       TEditorDockPanel.DockOver
 0001:000337B4       TEditorDockPanel.DoUnDock
 0001:00033814       TEditorDockPanel.Notification
 0001:00033854       TEditorDockPanel.ReloadDockedControl
 0001:00033884       TEditorDockPanel.SetNextControl
 0001:00033918       TEditorDockPanel.SetResizeSuspended
 0001:00033938       TEditorDockPanel.SetSplitter
 0001:000339CC       TEditorDockPanel.VisibleClientCount
 0001:0000D654       TEnumProperty.GetAttributes
 0001:0000D674       TEnumProperty.GetValue
 0001:0000D6D4       TEnumProperty.GetValues
 0001:0000D7A4       TEnumProperty.SetValue
 0001:0002D3F0       TEnvironmentTools.Create
 0001:0002D444       TEnvironmentTools.ToolSelected
 0001:000158C8       TEvent.Add
 0001:000157FC       TEvent.Create
 0001:00015850       TEvent.Destroy
 0001:00015914       TEvent.IndexOf
 0001:00015980       TEvent.Remove
 0001:000159CC       TEvent.Send
 0001:0002C174       TEventItem.Create
 0001:0002C298       TEvents.Add
 0001:0002C1E0       TEvents.Create
 0001:0002C22C       TEvents.Destroy
 0001:0002C300       TEvents.GetCount
 0001:0002C31C       TEvents.GetItems
 0001:0002E954       TEvRootActivatedEvent.Add
 0001:0002E970       TEvRootActivatedEvent.IndexOf
 0001:0002E994       TEvRootActivatedEvent.Remove
 0001:0002E9B0       TEvRootActivatedEvent.Send
 0001:0000D8D4       TFloatProperty.AllEqual
 0001:0000D934       TFloatProperty.GetValue
 0001:0000D978       TFloatProperty.SetValue
 0001:0003F248       TFontCharsetProperty.GetAttributes
 0001:0003F268       TFontCharsetProperty.GetValue
 0001:0003F2C0       TFontCharsetProperty.GetValues
 0001:0003F2D8       TFontCharsetProperty.SetValue
 0001:0003EFCC       TFontNameProperty.GetAttributes
 0001:0003EFEC       TFontNameProperty.GetValues
 0001:0003F078       TFontNameProperty.ListDrawValue
 0001:0003F128       TFontNameProperty.ListMeasureHeight
 0001:0003F1B8       TFontNameProperty.ListMeasureWidth
 0001:00040134       TFontProperty.Edit
 0001:000401D4       TFontProperty.GetAttributes
 0001:000470EC       TFrameSprig.Create
 0001:00047134       TFrameSprig.FigureChildren
 0001:00049F30       TGrabHandles.Create
 0001:0004A07C       TGrabHandles.Destroy
 0001:0004A180       TGrabHandles.GetParentOf
 0001:0004A0C4       TGrabHandles.GetSelection
 0001:0004A0D8       TGrabHandles.Hide
 0001:0004A128       TGrabHandles.Invalidate
 0001:0004A304       TGrabHandles.SetActive
 0001:0004A14C       TGrabHandles.SetSelection
 0001:0004A314       TGrabHandles.Show
 0001:0004A23C       TGrabHandles.SyncParent
 0001:0004A32C       TGrabHandles.Update
 0001:0004A414       TGrabHandles.WndProc
 0001:0003A998       TGraphicEditor.EditProperty
 0001:0003A7FC       TGraphicProperty.Edit
 0001:0003A8BC       TGraphicProperty.GetAttributes
 0001:0003A8C8       TGraphicProperty.GetValue
 0001:0003A980       TGraphicProperty.SetValue
 0001:00002EE4       TIFileStream.Commit
 0001:00002DE0       TIFileStream.Create
 0001:00002E40       TIFileStream.GetFileStream
 0001:00002EA8       TIFileStream.GetModifyTime
 0001:00002EC8       TIFileStream.SetModifyTime
 0001:00002E5C       TIFileStream.Stat
 0001:00002D5C       TIMemoryStream.Create
 0001:00002DC4       TIMemoryStream.GetMemoryStream
 0001:0003F310       TImeNameProperty.GetAttributes
 0001:0003F330       TImeNameProperty.GetValues
 0001:00017E74       TInformant.BeforeDestruction
 0001:00017E98       TInformant.Changed
 0001:00017EBC       TInformant.Destroy
 0001:00017EF8       TInformant.DisableNotify
 0001:00017F08       TInformant.EnableNotify
 0001:00017F34       TInformant.Notification
 0001:00017F94       TInformant.Notify
 0001:00017FEC       TInformant.Unnotify
 0001:0000D810       TInt64Property.AllEqual
 0001:0000D874       TInt64Property.GetEditLimit
 0001:0000D88C       TInt64Property.GetValue
 0001:0000D8B0       TInt64Property.SetValue
 0001:0000D358       TIntegerProperty.GetValue
 0001:0000D3D8       TIntegerProperty.SetValue
 0001:000015BC       TInterface.AddRef
 0001:00001554       TInterface.Create
 0001:000015A0       TInterface.Free
 0001:00001608       TInterface.GetVersion
 0001:000015D8       TInterface.Release
 0001:0000E434       TInterfaceProperty.AllEqual
 0001:0000E508       TInterfaceProperty.GetComponent
 0001:0000E590       TInterfaceProperty.GetComponentReference
 0001:0000E5EC       TInterfaceProperty.GetSelections
 0001:0000E758       TInterfaceProperty.GetValues
 0001:0000E6C0       TInterfaceProperty.ReceiveComponentNames
 0001:0000E7C4       TInterfaceProperty.SetValue
 0001:0002CF3C       TInternalItem.Create
 0001:0002CFC4       TInternalItem.Edit
 0001:0002D014       TInternalItem.GetChildCount
 0001:0002D02C       TInternalItem.GetChildren
 0001:0002D048       TInternalItem.GetEditor
 0001:0002D0C4       TInternalItem.Selectable
 0001:0002B6F0       TIStreamAdapter.Create
 0001:00002C3C       TIStreamAdapter.Create
 0001:00002D34       TIStreamAdapter.GetModifyTime
 0001:0002B744       TIStreamAdapter.Read
 0001:0002B774       TIStreamAdapter.Seek
 0001:00002D4C       TIStreamAdapter.SetModifyTime
 0001:00002CDC       TIStreamAdapter.Stat
 0001:0002B7A4       TIStreamAdapter.Write
 0001:00002CA0       TIStreamAdapter.Write
 0001:00034364       TJoinDockForm.CMDockNotification
 0001:000341AC       TJoinDockForm.Create
 0001:000341F0       TJoinDockForm.FormUnDock
 0001:000343DC       TJoinDockForm.GetDialogCharParentClass
 0001:0003425C       TJoinDockForm.LoadWindowState
 0001:000342D8       TJoinDockForm.ReloadDockedControl
 0001:000342F0       TJoinDockForm.SaveWindowState
 0001:000343E4       TJoinDockForm.UnlockUpdates
 0001:000003B8       TlsAlloc
 0002:00001014       tlsBuffer
 0001:000003C0       TlsFree
 0001:000003C8       TlsGetValue
 0002:00001004       TlsIndex
 0002:AD933000       TlsLast
 0002:00000018       TlsProc
 0001:000003D0       TlsSetValue
 0001:000462C0       TMainMenuWrapper.Create
 0001:00048A48       TMarkedItem.GetMarked
 0001:00048A4C       TMarkedItem.SetMarked
 0001:000538F4       TMenuBuilder.ActiveChanged
 0001:00053954       TMenuBuilder.AdjustScrollBars
 0001:00053A8C       TMenuBuilder.BuildCaptionFromPieces
 0001:00054A38       TMenuBuilder.ChangeWorkMenu
 0001:00053B9C       TMenuBuilder.CheckDragAcceptance
 0001:00053C24       TMenuBuilder.ClearDragState
 0001:00053C44       TMenuBuilder.ClearWorkMenu
 0001:00054D44       TMenuBuilder.Copy
 0001:0005920C       TMenuBuilder.CreateSubmenu1Click
 0001:00054D30       TMenuBuilder.Cut
 0001:00054E34       TMenuBuilder.Delete
 0001:00059204       TMenuBuilder.DeleteItemClick
 0001:00054F40       TMenuBuilder.DesignerClosed
 0001:00054F64       TMenuBuilder.DesignerOpened
 0001:00058F3C       TMenuBuilder.DoActivate
 0001:00054E7C       TMenuBuilder.EditAction
 0001:000536D4       TMenuBuilder.FormActivate
 0001:00058C24       TMenuBuilder.FormClose
 0001:000589DC       TMenuBuilder.FormCreate
 0001:000538DC       TMenuBuilder.FormDeactivate
 0001:00058BEC       TMenuBuilder.FormDestroy
 0001:000538E4       TMenuBuilder.FormMouseDown
 0001:0005369C       TMenuBuilder.FormResize
 0001:00053D1C       TMenuBuilder.GetActiveItem
 0001:00053D3C       TMenuBuilder.GetANewMenu
 0001:00054C88       TMenuBuilder.GetEditState
 0001:00053DEC       TMenuBuilder.GetScrollVisibility
 0001:00053D88       TMenuBuilder.GetSubWinForItem
 0001:00054EF8       TMenuBuilder.GetWindowForItem
 0001:00053E40       TMenuBuilder.HandleAltF10
 0001:000591B8       TMenuBuilder.InsertItemClick
 0001:00059258       TMenuBuilder.InsertResourceItemClick
 0001:00053EE0       TMenuBuilder.IsFirstWindowHome
 0001:00053EC4       TMenuBuilder.IsInDDList
 0001:00054F68       TMenuBuilder.ItemDeleted
 0001:00053F3C       TMenuBuilder.ItemGotFocus
 0001:00054FF0       TMenuBuilder.ItemInserted
 0001:00054FF4       TMenuBuilder.ItemsModified
 0001:00058DF0       TMenuBuilder.MnuBuildPopupPopup
 0001:00054320       TMenuBuilder.NewPopup
 0001:000549EC       TMenuBuilder.Notification
 0001:00054DA8       TMenuBuilder.Paste
 0001:00054BB4       TMenuBuilder.PerformUpdate
 0001:00058DAC       TMenuBuilder.PopupMenu1DeleteTemplatesClick
 0001:00058CE0       TMenuBuilder.PopupMenu1InsertFromTemplateClick
 0001:00058D64       TMenuBuilder.PopupMenu1SaveAsTemplateClick
 0001:00058C30       TMenuBuilder.PopupMenu1SelectMenuClick
 0001:0005443C       TMenuBuilder.ReConstructDDList
 0001:0005474C       TMenuBuilder.ResetAllSelections
 0001:00059344       TMenuBuilder.SelectionChanged
 0001:00054788       TMenuBuilder.SetDragState
 0001:00054830       TMenuBuilder.SetMenu
 0001:00054A2C       TMenuBuilder.SetWorkMenu
 0001:00054700       TMenuBuilder.SyncSelection
 0001:00059594       TMenuBuilder.UpdatePropertyInspector
 0001:00058FD0       TMenuBuilder.WMWinIniChange
 0001:000590B8       TMenuEditor.Edit
 0001:00059184       TMenuEditor.ExecuteVerb
 0001:00059190       TMenuEditor.GetVerb
 0001:000591B0       TMenuEditor.GetVerbCount
 0001:00059010       TMenuItemProperty.Edit
 0001:00059004       TMenuItemProperty.GetAttributes
 0001:00058FD4       TMenuItemProperty.GetValue
 0001:00045CB4       TMenuItemsWrapper.AddItem
 0001:00045C8C       TMenuItemsWrapper.AddItem
 0001:00045CF0       TMenuItemsWrapper.AddLine
 0001:00045D0C       TMenuItemsWrapper.Clear
 0001:00045D18       TMenuItemsWrapper.Count
 0001:00045D24       TMenuItemsWrapper.Create
 0001:00045D60       TMenuItemsWrapper.Find
 0001:00045DCC       TMenuItemsWrapper.FindByName
 0001:00045E10       TMenuItemsWrapper.GetComponent
 0001:00045E14       TMenuItemsWrapper.GetItem
 0001:00045E58       TMenuItemsWrapper.InsertItem
 0001:00045FA0       TMenuItemsWrapper.InsertItem
 0001:00045E34       TMenuItemsWrapper.InsertItem
 0001:00045EA4       TMenuItemsWrapper.InsertItem
 0001:00045EE0       TMenuItemsWrapper.InsertItem
 0001:00045FE4       TMenuItemsWrapper.InsertLine
 0001:00046000       TMenuItemsWrapper.InsertLine
 0001:00046048       TMenuItemsWrapper.SameAs
 0001:00057C38       TMenuItemWin.Create
 0001:00057D60       TMenuItemWin.Destroy
 0001:00057DA8       TMenuItemWin.DoSetColor
 0001:00057DF4       TMenuItemWin.GetCaptionExtent
 0001:00057E10       TMenuItemWin.GetMenuItem
 0001:00057E50       TMenuItemWin.MenuOwner
 0001:00057E60       TMenuItemWin.Notification
 0001:00057F10       TMenuItemWin.Paint
 0001:00058078       TMenuItemWin.PaintItemFocusRect
 0001:000580C0       TMenuItemWin.PaintItemGlyph
 0001:00058280       TMenuItemWin.PaintItemShortcut
 0001:00058468       TMenuItemWin.PaintItemText
 0001:00058668       TMenuItemWin.PaintSeparator
 0001:0005877C       TMenuItemWin.SetExtentValues
 0001:000588D8       TMenuItemWin.SetMenuItem
 0001:00058970       TMenuItemWin.SetSelected
 0001:000589D4       TMenuItemWin.WMGetDlgCode
 0001:000460CC       TMenuItemWrapper.GetCaption
 0001:000460E4       TMenuItemWrapper.GetChecked
 0001:000460EC       TMenuItemWrapper.GetEnabled
 0001:000460F4       TMenuItemWrapper.GetGroupIndex
 0001:000460FC       TMenuItemWrapper.GetHelpContext
 0001:00046104       TMenuItemWrapper.GetHint
 0001:0004611C       TMenuItemWrapper.GetRadioItem
 0001:00046124       TMenuItemWrapper.GetShortCut
 0001:0004612C       TMenuItemWrapper.GetTag
 0001:00046134       TMenuItemWrapper.GetVisible
 0001:0004613C       TMenuItemWrapper.HasParent
 0001:0004614C       TMenuItemWrapper.IsLine
 0001:00046158       TMenuItemWrapper.MenuIndex
 0001:00046164       TMenuItemWrapper.Name
 0001:0004617C       TMenuItemWrapper.Parent
 0001:000461A8       TMenuItemWrapper.SetCaption
 0001:000461F8       TMenuItemWrapper.SetChecked
 0001:00046204       TMenuItemWrapper.SetEnabled
 0001:00046210       TMenuItemWrapper.SetGroupIndex
 0001:0004621C       TMenuItemWrapper.SetHelpContext
 0001:00046224       TMenuItemWrapper.SetHint
 0001:0004623C       TMenuItemWrapper.SetRadioItem
 0001:00046248       TMenuItemWrapper.SetShortCut
 0001:00046254       TMenuItemWrapper.SetTag
 0001:0004625C       TMenuItemWrapper.SetVisible
 0001:00051534       TMenuParser.Create
 0001:000515A0       TMenuParser.Destroy
 0001:000515DC       TMenuParser.Error
 0001:000515E4       TMenuParser.ErrorStr
 0001:00051624       TMenuParser.NextToken
 0001:000517B4       TMenuParser.ReadBuffer
 0001:000519AC       TMenuParser.SkipBlanks
 0001:00051A30       TMenuParser.TokenString
 0001:00051A5C       TMenuParser.TokenSymbolIs
 0001:000506C0       TMenuSelectDialog.GetData
 0001:000506A8       TMenuSelectDialog.HelpButtonClick
 0001:00050788       TMenuSelectDialog.SelectionBoxDblClick
 0001:00050708       TMenuSelectDialog.SetData
 0001:0004FAF4       TMenuTemplate.ComponentRead
 0001:0004F71C       TMenuTemplate.Create
 0001:0004FBAC       TMenuTemplate.GetChildOwner
 0001:0004FB9C       TMenuTemplate.GetChildren
 0001:0004F778       TMenuTemplate.LoadFromClipboard
 0001:0004FA48       TMenuTemplate.ReaderSetName
 0001:0004FB58       TMenuTemplate.ReadState
 0001:0004F818       TMenuTemplate.ReadStream
 0001:0004F760       TMenuTemplate.SetItem
 0001:0004FBB0       TMenuTemplateManager.Create
 0001:0004FBEC       TMenuTemplateManager.Destroy
 0001:0004FDB4       TMenuTemplateManager.DoesTemplateExist
 0001:0004FC14       TMenuTemplateManager.GetChildren
 0001:0004FC68       TMenuTemplateManager.GetTemplate
 0001:0004FCA4       TMenuTemplateManager.GetTemplatesSize
 0001:0004FCAC       TMenuTemplateManager.IsSpaceAvailable
 0001:0004FD28       TMenuTemplateManager.Notification
 0001:0004FD44       TMenuTemplateManager.StreamTemplatesOut
 0001:0004FCC0       TMenuTemplateManager.TemplateSaveAs
 0001:000572A4       TMenuWin.AdjustAfterParentSize
 0001:0005518C       TMenuWin.CMFocusChanged
 0001:0005508C       TMenuWin.Create
 0001:00055320       TMenuWin.CreateAndPositionNewItem
 0001:00055164       TMenuWin.CreateParams
 0001:00055454       TMenuWin.FindControlIndex
 0001:0005548C       TMenuWin.GetActiveItem
 0001:000554DC       TMenuWin.GetItemsSelected
 0001:00055514       TMenuWin.GetLongestCaption
 0001:00055568       TMenuWin.GetLongestShortCut
 0001:0005561C       TMenuWin.GetWindowForItem
 0001:000555A0       TMenuWin.HideNextLevels
 0001:000555D4       TMenuWin.InitDragDrop
 0001:000556A8       TMenuWin.InsertMenuTemplate
 0001:000557DC       TMenuWin.IsAncestorLevel
 0001:00055800       TMenuWin.IsLastItemEmpty
 0001:0005583C       TMenuWin.IsParentLevel
 0001:0005586C       TMenuWin.ItemDblClick
 0001:000558F8       TMenuWin.ItemGotFocus
 0001:00055994       TMenuWin.ItemKeyDown
 0001:00055B38       TMenuWin.ItemKeyPress
 0001:00055DC4       TMenuWin.ItemOnMouseDown
 0001:0005790C       TMenuWin.MenuDragDrop
 0001:000579B0       TMenuWin.MenuDragOver
 0001:00057A5C       TMenuWin.MenuEndDrag
 0001:00055E0C       TMenuWin.MenuInvalidNotification
 0001:00055E3C       TMenuWin.NavItemIncrement
 0001:00055F9C       TMenuWin.NavItemLR
 0001:000560E8       TMenuWin.NavItemUD
 0001:000561DC       TMenuWin.NewMenuItem
 0001:00056138       TMenuWin.NewSubMenu
 0001:00057C08       TMenuWin.Notification
 0001:000551C4       TMenuWin.Paint
 0001:000573AC       TMenuWin.PositionAfterParentSize
 0001:0005665C       TMenuWin.RemoveMenuItem
 0001:000567C4       TMenuWin.ResetAllSelections
 0001:000567FC       TMenuWin.SetItemProperties
 0001:00056870       TMenuWin.SetPosition
 0001:00056970       TMenuWin.SetWorkMenu
 0001:00056BFC       TMenuWin.SizeItemWindows
 0001:00056C24       TMenuWin.StreamSelections
 0001:00054610       TMenuWin.SyncSelection
 0001:00056CD8       TMenuWin.TreatAsMenuBar
 0001:00056EFC       TMenuWin.UpdateMenuAssignments
 0001:000575B0       TMenuWin.UpdateNotification
 0001:00056FE0       TMenuWin.UpdatePropertyInspector
 0001:000570A4       TMenuWin.VerifyWindowsMatchMenu
 0001:00057104       TMenuWin.WidenItems
 0001:00046268       TMenuWrapper.Create
 0001:000462A4       TMenuWrapper.GetComponent
 0001:000462A8       TMenuWrapper.Items
 0001:0000E878       TMethodProperty.AllEqual
 0001:0000E8E0       TMethodProperty.AllNamed
 0001:0000E968       TMethodProperty.Edit
 0001:0000EA40       TMethodProperty.GetAttributes
 0001:0000EA60       TMethodProperty.GetEditLimit
 0001:0000EA78       TMethodProperty.GetFormMethodName
 0001:0000EBB0       TMethodProperty.GetTrimmedEventName
 0001:0000EC0C       TMethodProperty.GetValue
 0001:0000EC3C       TMethodProperty.GetValues
 0001:0000ED74       TMethodProperty.SetValue
 0001:000402B4       TModalResultProperty.GetAttributes
 0001:000402D4       TModalResultProperty.GetValue
 0001:00040318       TModalResultProperty.GetValues
 0001:00040348       TModalResultProperty.SetValue
 0001:0003F3BC       TMPFilenameProperty.Edit
 0001:0003F4B4       TMPFilenameProperty.GetAttributes
 0001:000509D4       TMtDeDlg.HelpButtonClick
 0001:000509C8       TMtDeDlg.OkButtonClick
 0001:000509EC       TMtDeDlg.SetData
 0001:00050CC4       TMtInDlg.GetData
 0001:00050CAC       TMtInDlg.HelpButtonClick
 0001:00050CA0       TMtInDlg.OkButtonClick
 0001:00050D0C       TMtInDlg.SetData
 0001:00050320       TMtSvDlg.GetData
 0001:00050438       TMtSvDlg.HelpButtonClick
 0001:000502AC       TMtSvDlg.SelectionBoxClick
 0001:00050374       TMtSvDlg.SetData
 0001:0000DAEC       TNestedProperty.Create
 0001:0000DB50       TNestedProperty.Destroy
 0001:0001F788       TNonAncestorList.NameList
 0001:0001F80C       TNonAncestorList.ShouldInclude
 0001:00048BA8       TNonControlItem.Create
 0001:00048C48       TNonControlItem.FlipChildren
 0001:00048BE8       TNonControlItem.GetBoundsRect
 0001:00048C40       TNonControlItem.GetMarked
 0001:00048BFC       TNonControlItem.GetParent
 0001:00048C08       TNonControlItem.GlobalToLocal
 0001:00048C1C       TNonControlItem.LocalToGlobal
 0001:00048CC0       TNonControlItem.Selectable
 0001:00048C30       TNonControlItem.SetBoundsRect
 0001:00048C44       TNonControlItem.SetMarked
 0001:00048C34       TNonControlItem.SetParent
 0001:00048C38       TNonControlItem.Show
 0001:00048C4C       TNonControlItem.ValidateDeletable
 0001:00048C3C       TNonControlItem.ZOrder
 0001:00006E48       TNotifierObject.AfterSave
 0001:00006E54       TNotifierObject.BeforeSave
 0001:00006E60       TNotifierObject.Destroyed
 0001:00006E6C       TNotifierObject.Modified
 0001:00009E30       TNullTools.ToolSelected
 0001:0005AC8C       TOleControlEditor.Create
 0001:0005AD20       TOleControlEditor.Destroy
 0001:0005AD5C       TOleControlEditor.DoVerb
 0001:0005AE04       TOleControlEditor.Edit
 0001:0005AE1C       TOleControlEditor.ExecuteVerb
 0001:0005AE44       TOleControlEditor.GetVerb
 0001:0005AE6C       TOleControlEditor.GetVerbCount
 0001:0005B02C       TOleCustomProperty.GetAttributes
 0001:0005B04C       TOleCustomProperty.GetValue
 0001:0005B07C       TOleCustomProperty.GetValues
 0001:0005B150       TOleCustomProperty.SetValue
 0001:0005B378       TOleEnumProperty.GetAttributes
 0001:0005B398       TOleEnumProperty.GetValue
 0001:0005B3DC       TOleEnumProperty.GetValues
 0001:0005B404       TOleEnumProperty.Initialize
 0001:0005B430       TOleEnumProperty.SetValue
 0001:0005B514       TOleFontEditor.Edit
 0001:0005B478       TOleObjectEditor.Create
 0001:0005B4BC       TOleObjectEditor.Edit
 0001:0005B5F0       TOleObjectProperty.Edit
 0001:0005B6C8       TOleObjectProperty.GetAttributes
 0001:0005B770       TOleObjectProperty.GetValue
 0001:0005B1C0       TOlePropPageProperty.Edit
 0001:0005B180       TOlePropPageProperty.GetAttributes
 0001:00039128       ToolForm
 0001:0003C298       ToolIntf
 0001:00006EB4       ToolsAPI
 0002:000001EC       ToolServices
 0001:00015780       ToolUtils
 0001:00042B4C       ToolWnds
 0001:0001C480       TopLevelComponent
 0001:0001C4B0       TopLevelComponents
 0001:0001C6BC       TopLevels
 0001:0000D2E4       TOrdinalProperty.AllEqual
 0001:0000D340       TOrdinalProperty.GetEditLimit
 0001:000154D0       TOTAClass.BeforeDestruction
 0001:00015464       TOTAClass.Create
 0001:000155EC       TOTAClass.GetInstance
 0001:0001555C       TOTAClass.NotifyDestroyed
 0001:0002E0C4       TOTAComponent.Create
 0001:0002E158       TOTAComponent.Delete
 0001:0002E11C       TOTAComponent.Destroy
 0001:0002E1A8       TOTAComponent.Focus
 0001:0002E360       TOTAComponent.GetChildProc
 0001:0002E2B8       TOTAComponent.GetChildren
 0001:0002E3C4       TOTAComponent.GetComponent
 0001:0002E430       TOTAComponent.GetComponentCount
 0001:0002E46C       TOTAComponent.GetComponentHandle
 0001:0002E488       TOTAComponent.GetComponentType
 0001:0002E4BC       TOTAComponent.GetControl
 0001:0002E520       TOTAComponent.GetControlCount
 0001:0002E544       TOTAComponent.GetParent
 0001:0002E5BC       TOTAComponent.GetPropCount
 0001:0002E5E8       TOTAComponent.GetPropList
 0001:0002E638       TOTAComponent.GetPropName
 0001:0002E684       TOTAComponent.GetPropType
 0001:0002E6C8       TOTAComponent.GetPropTypeByName
 0001:0002E70C       TOTAComponent.GetPropValue
 0001:0002E768       TOTAComponent.GetPropValueByName
 0001:0002E7C0       TOTAComponent.INTAComponent_GetComponent
 0001:0002E7F8       TOTAComponent.INTAComponent_GetPersistent
 0001:0002E814       TOTAComponent.IsTControl
 0001:0002E838       TOTAComponent.Select
 0001:0002E8A0       TOTAComponent.SetProp
 0001:0002E8FC       TOTAComponent.SetPropByName
 0001:00031038       TOTAFile.Create
 0001:0003109C       TOTAFile.GetAge
 0001:000310BC       TOTAFile.GetSource
 0001:0002D7F0       TOTAFormEditor.AddNotifier
 0001:0002D814       TOTAFormEditor.Create
 0001:0002D864       TOTAFormEditor.CreateComponent
 0001:0002D990       TOTAFormEditor.FindComponent
 0001:0002D9F0       TOTAFormEditor.FormModified
 0001:0002DA10       TOTAFormEditor.FormSaving
 0001:0002DA30       TOTAFormEditor.GetComponentFromHandle
 0001:0002DA7C       TOTAFormEditor.GetCreateParent
 0001:0002DAD8       TOTAFormEditor.GetFileName
 0001:0002DAF8       TOTAFormEditor.GetFormDesigner
 0001:0002DB34       TOTAFormEditor.GetFormResource
 0001:0002DB8C       TOTAFormEditor.GetModified
 0001:0002DBC0       TOTAFormEditor.GetModule
 0001:0002DBF8       TOTAFormEditor.GetRootComponent
 0001:0002DC3C       TOTAFormEditor.GetSelComponent
 0001:0002DCE4       TOTAFormEditor.GetSelCount
 0001:0002DD08       TOTAFormEditor.INTAFormEditor_GetFormResource
 0001:0002DD40       TOTAFormEditor.MarkModified
 0001:0002DD60       TOTAFormEditor.NotifyActivate
 0001:0002DD80       TOTAFormEditor.NotifyActivated
 0001:0002DE18       TOTAFormEditor.NotifyDestruct
 0001:0002DE38       TOTAFormEditor.NotifyFormModified
 0001:0002DED0       TOTAFormEditor.NotifyFormSaving
 0001:0002DF68       TOTAFormEditor.NotifyRenamed
 0001:0002E02C       TOTAFormEditor.RemoveNotifier
 0001:0002E050       TOTAFormEditor.Show
 0001:0002F5F4       TOTAFormNotifier.ComponentRenamed
 0001:0002F61C       TOTAFormNotifier.FormActivated
 0001:0002F628       TOTAFormNotifier.FormSaving
 0001:0002F534       TOTAModuleNotifier.CheckOverwrite
 0001:0002F548       TOTAModuleNotifier.Modified
 0001:0002F554       TOTAModuleNotifier.ModuleRenamed
 0001:0002F4CC       TOTANotifier.Create
 0001:0002F51C       TOTANotifier.Destroyed
 0001:00012D14       TPairing.Create
 0001:00012FF4       TPairing.CreateUpdateObjects
 0001:00012F68       TPairing.DeleteDeleted
 0001:00012DA8       TPairing.Destroy
 0001:00012DD8       TPairing.SetAncestor
 0001:00012E88       TPairing.SetAncestorRoot
 0001:00012E3C       TPairing.SetComponent
 0001:00012EDC       TPairing.SetComponentRoot
 0001:00012F30       TPairing.SetNew
 0001:000131F4       TPairings.Add
 0001:00013180       TPairings.AddChildren
 0001:00013138       TPairings.Clear
 0001:000130A8       TPairings.Create
 0001:00013100       TPairings.Destroy
 0001:00013334       TPairings.GetCount
 0001:00013350       TPairings.GetPairings
 0001:00013374       TPairings.SetHasNew
 0001:0003FD40       TPenStyleProperty.ListDrawValue
 0001:0003FF30       TPenStyleProperty.ListMeasureHeight
 0001:0003FEF8       TPenStyleProperty.ListMeasureWidth
 0001:0003FF48       TPenStyleProperty.PropDrawName
 0001:0003FCAC       TPenStyleProperty.PropDrawValue
 0001:00009840       TPersistentItem.Contains
 0001:00009858       TPersistentItem.Create
 0001:000098A8       TPersistentItem.Delete
 0001:000098C8       TPersistentItem.Equals
 0001:00009958       TPersistentItem.GetBoundsRect
 0001:000099FC       TPersistentItem.GetClientRect
 0001:00009988       TPersistentItem.GetExtendedRect
 0001:00009A94       TPersistentItem.GetItem
 0001:00009AB0       TPersistentItem.GetNamePath
 0001:00009AD4       TPersistentItem.GetParent
 0001:00009B00       TPersistentItem.HasSelectableChildren
 0001:00009AEC       TPersistentItem.IsContainer
 0001:00009B14       TPersistentItem.SetBoundsRect
 0001:00009B2C       TPersistentItem.ValidateDeletable
 0001:0003A4B4       TPictureEditor.Create
 0001:0003A514       TPictureEditor.Destroy
 0001:0003A544       TPictureEditor.Execute
 0001:0003A6A0       TPictureEditor.SetPicture
 0001:0003A47C       TPictureEditorDlg.ClearClick
 0001:0003A0BC       TPictureEditorDlg.FormCreate
 0001:0003A0EC       TPictureEditorDlg.FormDestroy
 0001:0003AA2C       TPictureEditorDlg.HelpButtonClick
 0001:0003A2A4       TPictureEditorDlg.ImagePaintBoxPaint
 0001:0003A0F8       TPictureEditorDlg.LoadClick
 0001:0003A1CC       TPictureEditorDlg.SaveClick
 0001:0003A6B0       TPictureProperty.Edit
 0001:0003A724       TPictureProperty.GetAttributes
 0001:0003A730       TPictureProperty.GetValue
 0001:0003A7E4       TPictureProperty.SetValue
 0001:000370AC       TPopupActionLink.IsDropdownMenuLinked
 0001:000370C0       TPopupActionLink.IsEnableDropdownLinked
 0001:000370D4       TPopupActionLink.IsPopupMenuLinked
 0001:000370E8       TPopupActionLink.SetDropdownMenu
 0001:000370EC       TPopupActionLink.SetEnableDropdown
 0001:000370F0       TPopupActionLink.SetPopupMenu
 0001:000462F8       TPopupMenuWrapper.Create
 0001:00046330       TPopupMenuWrapper.Popup
 0001:00046340       TPopupMenuWrapper.PopupComponent
 0001:0003C8B8       TPropertyCategory.Add
 0001:0003C8CC       TPropertyCategory.ClearMatches
 0001:0003C8D4       TPropertyCategory.Count
 0001:0003C8DC       TPropertyCategory.Create
 0001:0003C940       TPropertyCategory.Destroy
 0001:0003C970       TPropertyCategory.FreeEditorGroup
 0001:0003C9A8       TPropertyCategory.GetFilter
 0001:0003C9BC       TPropertyCategory.Match
 0001:0003CAC4       TPropertyCategoryList.ChangeVisibility
 0001:0003CA44       TPropertyCategoryList.ChangeVisibility
 0001:0003CBC8       TPropertyCategoryList.ClearMatches
 0001:0003CBF4       TPropertyCategoryList.Count
 0001:0003CBFC       TPropertyCategoryList.Create
 0001:0003CC40       TPropertyCategoryList.Destroy
 0001:0003CC70       TPropertyCategoryList.FindCategory
 0001:0003CCB4       TPropertyCategoryList.FreeEditorGroup
 0001:0003CD18       TPropertyCategoryList.GetCategory
 0001:0003CD2C       TPropertyCategoryList.GetHiddenCategories
 0001:0003CDC0       TPropertyCategoryList.IndexOf
 0001:0003CE08       TPropertyCategoryList.Match
 0001:0003CF04       TPropertyCategoryList.MiscCategory
 0001:0003CF60       TPropertyCategoryList.SetHiddenCategories
 0001:0000C854       TPropertyEditor.Activate
 0001:0000C860       TPropertyEditor.AllEqual
 0001:0000C990       TPropertyEditor.AutoFill
 0001:0000C79C       TPropertyEditor.Create
 0001:0000C814       TPropertyEditor.Destroy
 0001:0000C87C       TPropertyEditor.Edit
 0001:0000C9B0       TPropertyEditor.GetAttributes
 0001:0000C9D0       TPropertyEditor.GetComponent
 0001:0000CAA4       TPropertyEditor.GetEditLimit
 0001:0000D18C       TPropertyEditor.GetEditValue
 0001:0000C9F4       TPropertyEditor.GetFloatValue
 0001:0000CA14       TPropertyEditor.GetFloatValueAt
 0001:0000D020       TPropertyEditor.GetInt64Value
 0001:0000D044       TPropertyEditor.GetInt64ValueAt
 0001:0000D0DC       TPropertyEditor.GetIntfValue
 0001:0000D0FC       TPropertyEditor.GetIntfValueAt
 0001:0000CA4C       TPropertyEditor.GetMethodValue
 0001:0000CA6C       TPropertyEditor.GetMethodValueAt
 0001:0000CABC       TPropertyEditor.GetName
 0001:0000CAE0       TPropertyEditor.GetOrdValue
 0001:0000CB00       TPropertyEditor.GetOrdValueAt
 0001:0000CB38       TPropertyEditor.GetPrivateDirectory
 0001:0000CB68       TPropertyEditor.GetProperties
 0001:0000CB74       TPropertyEditor.GetPropInfo
 0001:0000CB90       TPropertyEditor.GetPropType
 0001:0000CBB0       TPropertyEditor.GetStrValue
 0001:0000CBD0       TPropertyEditor.GetStrValueAt
 0001:0000CC60       TPropertyEditor.GetValue
 0001:0000CCB4       TPropertyEditor.GetValues
 0001:0000CC08       TPropertyEditor.GetVarValue
 0001:0000CC28       TPropertyEditor.GetVarValueAt
 0001:0000CC80       TPropertyEditor.GetVisualValue
 0001:0000D298       TPropertyEditor.HasInstance
 0001:0000CCC0       TPropertyEditor.Initialize
 0001:0000CCCC       TPropertyEditor.Modified
 0001:0000CEE4       TPropertyEditor.Revert
 0001:0000CCEC       TPropertyEditor.SetFloatValue
 0001:0000D080       TPropertyEditor.SetInt64Value
 0001:0000D134       TPropertyEditor.SetIntfValue
 0001:0000CD4C       TPropertyEditor.SetMethodValue
 0001:0000CDA4       TPropertyEditor.SetOrdValue
 0001:0000CDFC       TPropertyEditor.SetPropEntry
 0001:0000CE34       TPropertyEditor.SetStrValue
 0001:0000CF40       TPropertyEditor.SetValue
 0001:0000CE8C       TPropertyEditor.SetVarValue
 0001:0000CF50       TPropertyEditor.ValueAvailable
 0001:0003C6AC       TPropertyFilter.Create
 0001:0003C718       TPropertyFilter.Destroy
 0001:0003C81C       TPropertyFilter.Match
 0001:0001B6E0       TPropertySprig.DeleteStyle
 0001:0001B6F4       TPropertySprig.Ghosted
 0001:0000F1FC       TPropInfoList.Contains
 0001:0000F128       TPropInfoList.Create
 0001:0000F2BC       TPropInfoList.Delete
 0001:0000F1BC       TPropInfoList.Destroy
 0001:0000F30C       TPropInfoList.Get
 0001:0000F330       TPropInfoList.Intersect
 0001:00052FF8       TransientMenuItem
 0001:00000AEC       TranslateMessage
 0001:0004BFE8       TranslatePoint
 0001:0001C2F8       TreeIntf
 0001:0002BF4C       TRenameItem.Create
 0001:0002C05C       TRenames.Add
 0001:0002BFA4       TRenames.Create
 0001:0002BFF0       TRenames.Destroy
 0001:0002C134       TRenames.GetCount
 0001:0002C150       TRenames.GetItems
 0001:0002C0D0       TRenames.Rename
 0001:00019060       Trimmed
 0001:0001AFA8       TRootSprig.AcceptsClass
 0001:00019FE8       TRootSprig.AddItem
 0001:0001A488       TRootSprig.AddType
 0001:0001A4B8       TRootSprig.AddTypeCount
 0001:0001AFCC       TRootSprig.BeginUpdate
 0001:0001A528       TRootSprig.CanAdd
 0001:0001A408       TRootSprig.CanMove
 0001:0001A560       TRootSprig.Create
 0001:0001A010       TRootSprig.DeleteStyle
 0001:0001AE08       TRootSprig.DepopulateTreeView
 0001:0001A5F0       TRootSprig.DesigntimeChange
 0001:0001A5FC       TRootSprig.Destroy
 0001:0001A17C       TRootSprig.EditAction
 0001:0001AFDC       TRootSprig.EndUpdate
 0001:0001B030       TRootSprig.EnsureUpdate
 0001:0001A658       TRootSprig.FigureParent
 0001:0001A664       TRootSprig.FindItem
 0001:0001A73C       TRootSprig.FindItemByName
 0001:0001A7F0       TRootSprig.FindItemByPath
 0001:0001A4EC       TRootSprig.GetAddType
 0001:0001AEAC       TRootSprig.GetDesigner
 0001:0001A2B8       TRootSprig.GetEditState
 0001:0001AEE4       TRootSprig.ItemDeleted
 0001:0001AF2C       TRootSprig.ItemInserted
 0001:0001AF40       TRootSprig.ItemsModified
 0001:0001A448       TRootSprig.Move
 0001:0001A9A4       TRootSprig.PaletteOver
 0001:0001ACFC       TRootSprig.PostRefreshTreeView
 0001:0001ACD0       TRootSprig.PreRefreshTreeView
 0001:0001AE58       TRootSprig.RefreshTreeView
 0001:0001A9C0       TRootSprig.RemoveItem
 0001:0001AADC       TRootSprig.Repopulate
 0001:0001AD5C       TRootSprig.RestoreExpandState
 0001:0001AC74       TRootSprig.RuntimeChange
 0001:0001A398       TRootSprig.SelectedSprig
 0001:0001A024       TRootSprig.SelectionSurvey
 0001:0001A8F0       TRootSprig.SelectItems
 0001:0001B074       TRootSprig.SetSprigDesigner
 0001:0001AD94       TRootSprig.StoreExpandState
 0001:0001ADDC       TRootSprig.StoreTreeState
 0001:0001B124       TRootSprig.TreeView
 0001:0001AA04       TRootSprig.ValidateParent
 0001:0001C04C       TRootSprigList.Create
 0001:0001C0A4       TRootSprigList.DesignerClosed
 0001:0001C10C       TRootSprigList.DesignerOpened
 0001:0001C184       TRootSprigList.Destroy
 0001:0001C1C0       TRootSprigList.FindRoot
 0001:0001C214       TRootSprigList.ItemDeleted
 0001:0001C244       TRootSprigList.ItemInserted
 0001:0001C274       TRootSprigList.ItemsModified
 0001:0002D220       TRootStream.Create
 0001:0002D2E4       TRootStream.Destroy
 0001:0002D390       TRootStream.GetModifyTime
 0001:0002D3AC       TRootStream.SetModifyTime
 0001:0002D3C8       TRootStream.Write
 0001:0001EC68       TryRename
 0001:000101FC       TSelectionEditor.Create
 0001:00010254       TSelectionEditor.ExecuteVerb
 0001:00010268       TSelectionEditor.GetVerb
 0001:00010284       TSelectionEditor.GetVerbCount
 0001:000102A8       TSelectionEditor.PrepareItem
 0001:0001029C       TSelectionEditor.RequiresUnits
 0001:000105CC       TSelectionEditorDefinition.Create
 0001:00010634       TSelectionEditorDefinition.Matches
 0001:00010658       TSelectionEditorDefinitionList.GetItem
 0001:00010398       TSelectionEditorList.Add
 0001:000103EC       TSelectionEditorList.Create
 0001:00010450       TSelectionEditorList.Get
 0001:000104C8       TSelectionEditorList.GetCount
 0001:0000A224       TSelectionListenerHelper.AddListener
 0001:0000A244       TSelectionListenerHelper.Create
 0001:0000A29C       TSelectionListenerHelper.RemoveListener
 0001:0000A2BC       TSelectionListenerHelper.SelectionChanged
 0001:00040A04       TSelectionMessageList.Add
 0001:00040A58       TSelectionMessageList.Create
 0001:00040ABC       TSelectionMessageList.Get
 0001:00040B34       TSelectionMessageList.GetCount
 0001:00029DC0       TSelections.Create
 0001:00029E30       TSelections.Destroy
 0001:00029E80       TSelections.FindItemFor
 0001:00029EE4       TSelections.GetCount
 0001:00029F04       TSelections.GetPersistents
 0001:00029F90       TSelections.SelectionChanged
 0001:0000DBC8       TSetElementProperty.AllEqual
 0001:0000DB74       TSetElementProperty.Create
 0001:0000DC4C       TSetElementProperty.GetAttributes
 0001:0000DC6C       TSetElementProperty.GetName
 0001:0000DC9C       TSetElementProperty.GetValue
 0001:0000DCE0       TSetElementProperty.GetValues
 0001:0000DD0C       TSetElementProperty.SetValue
 0001:0000DD68       TSetProperty.GetAttributes
 0001:0000DD88       TSetProperty.GetProperties
 0001:0000DDF4       TSetProperty.GetValue
 0001:000403A8       TShortCutProperty.GetAttributes
 0001:000403C8       TShortCutProperty.GetValue
 0001:00040408       TShortCutProperty.GetValues
 0001:00040494       TShortCutProperty.SetValue
 0001:00009E44       TSimpleSelections.Add
 0001:00009EA4       TSimpleSelections.BeginSelections
 0001:00009F08       TSimpleSelections.Clear
 0001:00009EB4       TSimpleSelections.Create
 0001:00009F28       TSimpleSelections.Destroy
 0001:00009F64       TSimpleSelections.EndSelections
 0001:00009F90       TSimpleSelections.GetCount
 0001:00009FC0       TSimpleSelections.GetItems
 0001:0000A208       TSimpleSelections.GetSelectionLevel
 0001:0000A07C       TSimpleSelections.IndexOf
 0001:0000A13C       TSimpleSelections.Modified
 0001:0000A04C       TSimpleSelections.Remove
 0001:0000A178       TSimpleSelections.Remove
 0001:0000A1A8       TSimpleSelections.Selected
 0001:0000A1CC       TSimpleSelections.Toggle
 0001:00018058       TSprig.Add
 0001:00019F2C       TSprig.AddType
 0001:00019F3C       TSprig.AddTypeCount
 0001:0001812C       TSprig.AnyProblems
 0001:00019C3C       TSprig.BeginUpdate
 0001:00019F54       TSprig.CanAdd
 0001:00019D5C       TSprig.CanMove
 0001:000181DC       TSprig.Caption
 0001:000191CC       TSprig.CaptionFor
 0001:000182A0       TSprig.ClearTreeNode
 0001:00018330       TSprig.ClearTreeNode
 0001:00018348       TSprig.ClearUnneededSprigs
 0001:00019B60       TSprig.Construct
 0001:00019FAC       TSprig.CopyGlyph
 0001:000183B0       TSprig.Count
 0001:000183DC       TSprig.Create
 0001:00019534       TSprig.CustomDelete
 0001:0001950C       TSprig.DeleteStyle
 0001:00019A68       TSprig.DesigntimeChange
 0001:00018468       TSprig.Destroy
 0001:00018518       TSprig.DragClass
 0001:0001854C       TSprig.DragDrop
 0001:0001857C       TSprig.DragDropTo
 0001:0001865C       TSprig.DragOver
 0001:0001868C       TSprig.DragOverTo
 0001:00019C5C       TSprig.EndUpdate
 0001:00019C7C       TSprig.EnsureUpdate
 0001:000196B8       TSprig.FigureChildren
 0001:0001958C       TSprig.FigureParent
 0001:00018844       TSprig.Find
 0001:00018818       TSprig.Find
 0001:00018758       TSprig.Find
 0001:00018784       TSprig.FindItem
 0001:00018874       TSprig.FindItemByName
 0001:00018A6C       TSprig.FindItemByPath
 0001:00018A40       TSprig.FindPath
 0001:000197E8       TSprig.FocusItem
 0001:00018B5C       TSprig.ForEach
 0001:00019F78       TSprig.GetAddType
 0001:00019AA8       TSprig.GetDesigner
 0001:00019AF0       TSprig.GetImageIndex
 0001:00018BCC       TSprig.GetItem
 0001:00019B38       TSprig.GetStateIndex
 0001:00019D40       TSprig.Ghosted
 0001:00019C9C       TSprig.Hidden
 0001:00018C00       TSprig.Hint
 0001:0001993C       TSprig.IncludeIndexInCaption
 0001:00018C18       TSprig.Index
 0001:00018C4C       TSprig.IndexOf
 0001:00019994       TSprig.Invalidate
 0001:00019548       TSprig.ItemClass
 0001:000198C0       TSprig.ItemIndex
 0001:00019E64       TSprig.Move
 0001:00018CB8       TSprig.Name
 0001:00019F94       TSprig.Owner
 0001:00019354       TSprig.PaletteOver
 0001:00019388       TSprig.PaletteOverTo
 0001:00019574       TSprig.ParentProperty
 0001:00019A34       TSprig.Parents
 0001:00019458       TSprig.Path
 0001:00018CD4       TSprig.PrepareMenu
 0001:000198D8       TSprig.Reparent
 0001:00019900       TSprig.ReparentChildren
 0001:00019A88       TSprig.RuntimeChange
 0001:00018CE4       TSprig.SeekParent
 0001:00018E70       TSprig.SeekParent
 0001:00018D88       TSprig.SeekParent
 0001:000199FC       TSprig.SelectItems
 0001:00019950       TSprig.SetExpanded
 0001:00019B1C       TSprig.SetImageIndex
 0001:000198E4       TSprig.ShowRegisteredMenus
 0001:000198AC       TSprig.SortByIndex
 0001:00019854       TSprig.SortItems
 0001:00018F90       TSprig.Transient
 0001:00018FA4       TSprig.TreeNodeFor
 0001:00018C80       TSprig.UniqueName
 0001:000190F0       TSprig.VisualRefresh
 0001:0001BB10       TSprigIndex.Add
 0001:0001BBB0       TSprigIndex.Create
 0001:0001BC14       TSprigIndex.Destroy
 0001:0001BC50       TSprigIndex.Find
 0001:0001BCE4       TSprigIndex.Remove
 0001:0001B1F8       TSprigIntfType.Create
 0001:0001B268       TSprigIntfType.Match
 0001:0001BD94       TSprigTreeNode.Destroy
 0001:0001B150       TSprigType.Create
 0001:0001B1B8       TSprigType.Score
 0001:0001B2C4       TSprigTypeList.Add
 0001:0001B2FC       TSprigTypeList.Add
 0001:0001B334       TSprigTypeList.ClearCache
 0001:0001B350       TSprigTypeList.Create
 0001:0001B3B8       TSprigTypeList.Destroy
 0001:0001B400       TSprigTypeList.FreeEditorGroup
 0001:0001B498       TSprigTypeList.Match
 0001:0001B4D0       TSprigTypeList.MatchCache
 0001:0001B4FC       TSprigTypeList.MatchClass
 0001:0002BD60       TStreamAdapter.Create
 0001:0002BDB8       TStreamAdapter.Destroy
 0001:0002BE00       TStreamAdapter.Read
 0001:0002BE34       TStreamAdapter.Seek
 0001:0002BE68       TStreamAdapter.SetSize
 0001:0002BE88       TStreamAdapter.Write
 0001:00031858       TStrEditDlg.CodeWndBtnClick
 0001:00031370       TStrEditDlg.FileOpen
 0001:000313E8       TStrEditDlg.FileSave
 0001:00031830       TStrEditDlg.HelpButtonClick
 0001:00031528       TStringListProperty.Edit
 0001:00031490       TStringListProperty.EditDialog
 0001:000314B8       TStringListProperty.GetAttributes
 0001:000314F0       TStringListProperty.GetStrings
 0001:0003150C       TStringListProperty.SetStrings
 0001:0000D9A0       TStringProperty.AllEqual
 0001:0000DA40       TStringProperty.GetEditLimit
 0001:0000DA7C       TStringProperty.GetValue
 0001:0000DA98       TStringProperty.SetValue
 0001:000305A4       TStringsEditDlg.FormCreate
 0001:000305DC       TStringsEditDlg.GetLines
 0001:00030468       TStringsEditDlg.GetLinesControl
 0001:00030484       TStringsEditDlg.Memo1KeyDown
 0001:00030600       TStringsEditDlg.SetLines
 0001:000304B8       TStringsEditDlg.UpdateStatus
 0001:0002FCF8       TStringsFileSystem.Create
 0001:0002FFF4       TStringsFileSystem.DeleteFile
 0001:0002FD4C       TStringsFileSystem.Destroy
 0001:0002FF5C       TStringsFileSystem.FileAge
 0001:0003000C       TStringsFileSystem.FileExists
 0001:00030054       TStringsFileSystem.GetBackupFileName
 0001:0002FEB0       TStringsFileSystem.GetFileStream
 0001:00030074       TStringsFileSystem.GetIDString
 0001:00030034       TStringsFileSystem.GetTempFileName
 0001:0002FD88       TStringsFileSystem.GetTStringsProperty
 0001:0002FFE0       TStringsFileSystem.IsFileBased
 0001:0002FFC8       TStringsFileSystem.IsReadonly
 0001:0002FFAC       TStringsFileSystem.RenameFile
 0001:000310DC       TStringsModuleCreator.Create
 0001:00031148       TStringsModuleCreator.Destroy
 0001:00031184       TStringsModuleCreator.FormCreated
 0001:00031194       TStringsModuleCreator.GetAncestorName
 0001:000311AC       TStringsModuleCreator.GetCreatorType
 0001:000311DC       TStringsModuleCreator.GetExisting
 0001:000311F0       TStringsModuleCreator.GetFileSystem
 0001:00031234       TStringsModuleCreator.GetFormName
 0001:0003124C       TStringsModuleCreator.GetImplFileName
 0001:0003126C       TStringsModuleCreator.GetIntfFileName
 0001:00031284       TStringsModuleCreator.GetMainForm
 0001:00031298       TStringsModuleCreator.GetOwner
 0001:000312B0       TStringsModuleCreator.GetShowForm
 0001:000312C4       TStringsModuleCreator.GetShowSource
 0001:000312D8       TStringsModuleCreator.GetUnnamed
 0001:000312EC       TStringsModuleCreator.NewFormFile
 0001:0003130C       TStringsModuleCreator.NewImplSource
 0001:00031350       TStringsModuleCreator.NewIntfSource
 0001:0002FAAC       TStringsStream.Create
 0001:0002FBE8       TStringsStream.Destroy
 0001:0002FC9C       TStringsStream.SetDesignerModified
 0001:0002FC64       TStringsStream.Write
 0001:00036160       TTabDockHostForm.CMDialogChar
 0001:00036184       TTabDockHostForm.Create
 0001:000361CC       TTabDockHostForm.FormCreate
 0001:00036220       TTabDockHostForm.GetDialogCharParentClass
 0001:00036228       TTabDockHostForm.GetDockSiteControl
 0001:00036230       TTabDockHostForm.LoadWindowState
 0001:000364F8       TTabDockHostForm.ManualDockClient
 0001:0003652C       TTabDockHostForm.SaveWindowState
 0001:000366A8       TTabDockHostForm.Top1Click
 0001:00033F14       TTabDockPageControl.Change
 0001:00033C60       TTabDockPageControl.CMDockClient
 0001:00033CFC       TTabDockPageControl.CMDockNotification
 0001:00033C00       TTabDockPageControl.Create
 0001:00033D50       TTabDockPageControl.DoAddDockClient
 0001:00033EC8       TTabDockPageControl.DockOver
 0001:00033D7C       TTabDockPageControl.DoRemoveDockClient
 0001:00033E28       TTabDockPageControl.GetSiteInfo
 0001:00033E80       TTabDockPageControl.ShowDockClient
 0001:00040534       TTabOrderProperty.GetAttributes
 0001:0000EF7C       TTimeProperty.GetAttributes
 0001:0000EF9C       TTimeProperty.GetValue
 0001:0000EFE4       TTimeProperty.SetValue
 0001:000427D0       TToolbarDesignWindow.FormCreate
 0001:00042808       TToolbarDesignWindow.GetLargeButtons
 0001:000428DC       TToolbarDesignWindow.ResizeButtons
 0001:0004282C       TToolbarDesignWindow.SetLargeButtons
 0001:0004284C       TToolbarDesignWindow.Splitter1CanResize
 0001:000428B0       TToolbarDesignWindow.Splitter1Moved
 0001:00042A8C       TToolbarDesignWindow.TextLabelsCmdExecute
 0001:00042AEC       TToolbarDesignWindow.TextLabelsCmdUpdate
 0001:00042A18       TToolbarDesignWindow.ToolbarCmdExecute
 0001:00042ABC       TToolbarDesignWindow.ToolbarCmdUpdate
 0001:00038BC4       TToolbarForm.FormCreate
 0001:00038C98       TToolbarForm.GetLargeButtons
 0001:00038D38       TToolbarForm.LoadWindowState
 0001:00038E3C       TToolbarForm.ResizeButtons
 0001:00038CB4       TToolbarForm.SaveWindowState
 0001:00038CA8       TToolbarForm.SetLargeButtons
 0001:00038DE8       TToolbarForm.Splitter1CanResize
 0001:00038E24       TToolbarForm.Splitter1Moved
 0001:0003909C       TToolbarForm.TextLabelsCmdExecute
 0001:000390D4       TToolbarForm.TextLabelsCmdUpdate
 0001:00039050       TToolbarForm.ToolbarCmdExecute
 0001:000390B0       TToolbarForm.ToolbarCmdUpdate
 0001:0001BFCC       TTransientCollectionSprig.Create
 0001:0001BF64       TTransientSprig.Transient
 0001:0001249C       TUpdateFiler.Create
 0001:000129BC       TUpdateFiler.DefineBinaryProperty
 0001:00012880       TUpdateFiler.DefineProperty
 0001:0001251C       TUpdateFiler.Destroy
 0001:00012558       TUpdateFiler.Empty
 0001:0001257C       TUpdateFiler.Filter
 0001:00012820       TUpdateFiler.FilterProp
 0001:00012A40       TUpdateFiler.FlushBuffer
 0001:000127AC       TUpdateFiler.Update
 0001:00015244       TUpdateManager.BeginUpdate
 0001:00014814       TUpdateManager.CanRevert
 0001:00014668       TUpdateManager.Create
 0001:00014780       TUpdateManager.Destroy
 0001:00015284       TUpdateManager.EndUpdate
 0001:00015140       TUpdateManager.Filter
 0001:000152C4       TUpdateManager.GetAncestor
 0001:000152E0       TUpdateManager.GetComponent
 0001:000148BC       TUpdateManager.GetHasDescendents
 0001:0001522C       TUpdateManager.GetInstance
 0001:000148DC       TUpdateManager.GetIsDescendent
 0001:000148A0       TUpdateManager.Modified
 0001:000151C4       TUpdateManager.NameExists
 0001:0001485C       TUpdateManager.Notification
 0001:00014974       TUpdateManager.RenameComponent
 0001:000149F4       TUpdateManager.RenameDescendents
 0001:00014A44       TUpdateManager.Revert
 0001:0001493C       TUpdateManager.SetChildAncestor
 0001:00014FCC       TUpdateManager.Update
 0001:000148F8       TUpdateManager.UpdateChildren
 0001:00014A80       TUpdateManager.Updating
 0001:00013724       TUpdateObject.AddChild
 0001:00014014       TUpdateObject.CanRevert
 0001:000137E4       TUpdateObject.ComponentDelete
 0001:00013498       TUpdateObject.Create
 0001:00013698       TUpdateObject.Destroy
 0001:00013A94       TUpdateObject.Filter
 0001:00013D88       TUpdateObject.FilterOrder
 0001:00013908       TUpdateObject.FindChild
 0001:000139CC       TUpdateObject.FindChildProp
 0001:0001383C       TUpdateObject.GetAncestorMethod
 0001:0001387C       TUpdateObject.GetAncestorPointer
 0001:000138D8       TUpdateObject.GetAncestorReference
 0001:00013E70       TUpdateObject.Revert
 0001:00014214       TUpdateObject.Update
 0001:00014570       TUpdateObject.ValidateObjects
 0001:000308B0       TValueEditDlg.GetLines
 0001:00030894       TValueEditDlg.GetLinesControl
 0001:000308D4       TValueEditDlg.SetLines
 0001:00030920       TValueEditDlg.ValueListEditor1KeyDown
 0001:000308F8       TValueEditDlg.ValueListEditor1StringsChange
 0001:00031878       TValueListProperty.EditDialog
 0001:00011438       TVariantProperty.GetAttributes
 0001:00011458       TVariantProperty.GetProperties
 0001:00011544       TVariantProperty.GetValue
 0001:000116E4       TVariantProperty.SetValue
 0001:00011070       TVariantTypeProperty.AllEqual
 0001:00011120       TVariantTypeProperty.GetAttributes
 0001:00011140       TVariantTypeProperty.GetName
 0001:00011170       TVariantTypeProperty.GetValue
 0001:00011228       TVariantTypeProperty.GetValues
 0001:00011344       TVariantTypeProperty.SetValue
 0001:0004A8AC       TVclDesignSurface.Activate
 0001:0004DE10       TVclDesignSurface.ActivateDragHint
 0001:0004A8CC       TVclDesignSurface.BeginDragging
 0001:0004B608       TVclDesignSurface.BuildLocalMenu
 0001:0004DBEC       TVclDesignSurface.CancelDragHint
 0001:0004B700       TVclDesignSurface.CheckContainer
 0001:0004E43C       TVclDesignSurface.Close
 0001:0004B810       TVclDesignSurface.ComponentVerb
 0001:0004B890       TVclDesignSurface.Create
 0001:0004BA18       TVclDesignSurface.CursorPosition
 0001:0004E334       TVclDesignSurface.DesignerClosed
 0001:0004E338       TVclDesignSurface.DesignerOpened
 0001:0004BA44       TVclDesignSurface.DesignerToGlobal
 0001:0004BA60       TVclDesignSurface.Destroy
 0001:0004D65C       TVclDesignSurface.DragHintMouseMessage
 0001:0004D580       TVclDesignSurface.DragHintMouseMessage
 0001:0004E280       TVclDesignSurface.DragHintTimerExpired
 0001:0004BAA4       TVclDesignSurface.FindContainer
 0001:0004D544       TVclDesignSurface.FindDragTarget
 0001:0004BBFC       TVclDesignSurface.FindNextItem
 0001:0004BCF8       TVclDesignSurface.FlipContainers
 0001:0004BD60       TVclDesignSurface.Focus
 0001:0004BD64       TVclDesignSurface.GetCustomForm
 0001:0004D74C       TVclDesignSurface.GetDragHintInfo
 0001:0004BD68       TVclDesignSurface.GetGridOffset
 0001:0004BDBC       TVclDesignSurface.GetIsControl
 0001:0004BDC0       TVclDesignSurface.GetOffset
 0001:0004E360       TVclDesignSurface.GetSelectionEditors
 0001:0004E3C4       TVclDesignSurface.GetSelectionMessages
 0001:0004BDCC       TVclDesignSurface.GetShiftState
 0001:0004BDFC       TVclDesignSurface.GlobalToDesigner
 0001:0004BE28       TVclDesignSurface.GrabHandleMouseDown
 0001:0004BE18       TVclDesignSurface.GridSnapDisabled
 0001:0004DBB0       TVclDesignSurface.HideDragHint
 0001:0004B768       TVclDesignSurface.InstanceInserted
 0001:0004B7D8       TVclDesignSurface.InstanceRemoved
 0001:0004BEC0       TVclDesignSurface.InvokeLocalMenu
 0001:0004C6C8       TVclDesignSurface.IsDesignMsg
 0001:0004D4F0       TVclDesignSurface.IsHintMsg
 0001:0004C9DC       TVclDesignSurface.IsModifiableFrame
 0001:0004E33C       TVclDesignSurface.ItemDeleted
 0001:0004CA14       TVclDesignSurface.ItemFor
 0001:0004E340       TVclDesignSurface.ItemInserted
 0001:0004E344       TVclDesignSurface.ItemsModified
 0001:0004CAE4       TVclDesignSurface.LocalPopup
 0001:0004E914       TVclDesignSurface.MenuCommand
 0001:0004CB4C       TVclDesignSurface.ModuleVerb
 0001:0004CCE0       TVclDesignSurface.MoveContainersFront
 0001:0004CD60       TVclDesignSurface.Notification
 0001:0004CE34       TVclDesignSurface.PaintGrid
 0001:0004D008       TVclDesignSurface.ResyncContainers
 0001:0004E348       TVclDesignSurface.SelectionChanged
 0001:0004D034       TVclDesignSurface.SelectionVerb
 0001:0004D094       TVclDesignSurface.SetCustomForm
 0001:0004D098       TVclDesignSurface.SetOptions
 0001:0004E2B8       TVclDesignSurface.StartDragHintTimer
 0001:0004E300       TVclDesignSurface.StopDragHintTimer
 0001:0004D118       TVclDesignSurface.Update
 0001:0004DC28       TVclDesignSurface.UpdateDragHint
 0001:0004D188       TVclDesignSurface.UpdateSelection
 0001:0004D18C       TVclDesignSurface.ValidateRename
 0001:0004E6D8       TVclDesignSurface.VCLDragDrop
 0001:0004A688       TVclDragBoxes.Add
 0001:0004A6B0       TVclDragBoxes.Change
 0001:0004A54C       TVclDragBoxes.Create
 0001:0004A63C       TVclDragBoxes.Destroy
 0001:0004A778       TVclDragBoxes.DrawBox
 0001:0004A714       TVclDragBoxes.MoveBy
 0001:00002F14       TVirtualStream.Create
 0001:00002FC8       TVirtualStream.GetModifyTime
 0001:00002FF8       TVirtualStream.SetModifyTime
 0001:0004F320       TWinControlCustomModule.CreateDesignerForm
 0001:0004EE98       TWinControlForm.AfterConstruction
 0001:0004EDF8       TWinControlForm.Create
 0001:0004F2D4       TWinControlForm.DesignerClosed
 0001:0004F2D8       TWinControlForm.DesignerOpened
 0001:0004EE60       TWinControlForm.Destroy
 0001:0004F204       TWinControlForm.DragEnd
 0001:0004F18C       TWinControlForm.DragMove
 0001:0004F14C       TWinControlForm.DragStart
 0001:0004F088       TWinControlForm.FormResize
 0001:0004EEB0       TWinControlForm.Initialize
 0001:0004F30C       TWinControlForm.ItemDeleted
 0001:0004F310       TWinControlForm.ItemInserted
 0001:0004F314       TWinControlForm.ItemsModified
 0001:0004F004       TWinControlForm.Modified
 0001:0004F31C       TWinControlForm.SelectionChanged
 0001:0004F214       TWinControlForm.SizerMouseDown
 0001:0004F270       TWinControlForm.SizerMouseMove
 0001:0004F2C8       TWinControlForm.SizerMouseUp
 0001:0004F0C8       TWinControlForm.UpdateSizers
 0001:00048CC4       TWinControlItem.Contains
 0001:00048D4C       TWinControlItem.Create
 0001:00048DA4       TWinControlItem.FlipChildren
 0001:00048DB8       TWinControlItem.GetChildCount
 0001:00048DC4       TWinControlItem.GetChildren
 0001:00048D90       TWinControlItem.GetClientRect
 0001:00048DE8       TWinControlItem.GetWinControl
 0001:00048DF8       TWinControlItem.HasSelectableChildren
 0001:00048DEC       TWinControlItem.IsContainer
 0001:00046EBC       TWinControlRootSprig.Create
 0001:00046F10       TWinControlRootSprig.DragDrop
 0001:00046F68       TWinControlRootSprig.DragOver
 0001:00046F90       TWinControlRootSprig.PaletteOver
 0001:00046DF8       TWinControlSprig.Create
 0001:00046E4C       TWinControlSprig.DragDrop
 0001:00046E80       TWinControlSprig.DragOver
 0001:00046EB4       TWinControlSprig.PaletteOver
 0001:00009B4C       TXorDragBoxes.Add
 0001:00009C14       TXorDragBoxes.BoundingRect
 0001:00009CD8       TXorDragBoxes.Change
 0001:00009D4C       TXorDragBoxes.Done
 0001:00009D68       TXorDragBoxes.DrawBoxes
 0001:00009DB8       TXorDragBoxes.MoveBy
 0001:0001FEB8       TypeFromName
 0001:0004D4D4       UnhookHintHooks
 0001:00000AF4       UnhookWindowsHookEx
 0001:000004B4       UninitializeModule
 0001:00000AFC       UnionRect
 0001:000233B4       UniqueEventName
 0002:000010FC       UniqueNumber
 0001:00050DB8       UniquifyName
 0001:0000441C       UnlistPublishedProperty
 0001:00010D00       UnnotifyGroupChange
 0001:0003E8D4       UnRegActions
 0001:00030180       Unregister
 0001:0003E8E4       UnregisterActionGroup
 0001:00000B04       UnregisterClass
 0002:00001190       UnregisterCustomEditorViewProc
 0001:000040B4       UnregisterDesignNotification
 0001:0001E9B4       UnregisterDesignNotification
 0002:0000105C       UnregisterDesignNotificationProc
 0001:00034990       UnregisterDesktopProcs
 0001:0003B564       UnregisterEditorView
 0002:000001A8       UnregisterFieldAddress
 0001:0001C674       UnregisterHandler
 0002:00000194       UnregisterMainFormShown
 0002:00000188       UnregisterMenu
 0001:0001532C       Update
 0001:00043EF4       UpdateColumns
 0001:00031C3C       UpdateDesktop
 0001:000126A8       UpdateObject
 0001:000140D0       UpdateOrder
 0002:00001134       UpdatesDisabled
 0001:00056E64       UpdateSelfValues
 0001:00043C40       UpdateSizes
 0001:00056EC0       UpdateValues
 0001:00000B0C       UpdateWindow
 0001:000025C8       UrlMon
 0001:0001EC2C       ValidateFrameInsert
 0001:0004DDC4       ValidateHintWindow
 0001:0001AA5C       ValidateSprigs
 0001:00030984       ValueEdit
 0002:000000C0       VarTypeNames
 0001:00040DDC       VCLEditors
 0001:00046378       VCLMenus
 0001:000471DC       VCLSprigs
 0001:0004E9A0       VCLSurface
 0001:00001668       VirtIntf
 0001:0004B694       VisibleRoot
 0001:0004F3A8       WCtlForm
 0001:00046CD8       WinControlDragDrop
 0001:00046D6C       WinControlDragOver
 0001:00046DA8       WinControlPaletteOver
 0001:00000B8C       Windows
 0001:00002600       WinInet
 0001:000026F8       WinSpool
 0001:00024560       WorkToDo
 0001:00023B7C       WriteBounds
 0001:00023D54       WriteMethods
 0001:00024B78       WriteStream


  Address         Publics by Value

 0002:AD933000       TlsLast
 0001:000003A0       FreeLibrary
 0001:000003A8       LocalAlloc
 0001:000003B0       LocalFree
 0001:000003B8       TlsAlloc
 0001:000003C0       TlsFree
 0001:000003C8       TlsGetValue
 0001:000003D0       TlsSetValue
 0001:000003D8       AllocTlsBuffer
 0001:000003E4       GetTlsSize
 0001:000003EC       InitThreadTLS
 0001:00000430       InitProcessTLS
 0001:0000045C       ExitThreadTLS
 0001:00000484       ExitProcessTLS
 0001:000004A8       InitializeModule
 0001:000004B4       UninitializeModule
 0001:000004D8       @InitPkg
 0001:0000053C       @PackageLoad
 0001:00000548       @PackageUnload
 0001:00000554       Finalization
 0001:00000584       SysInit
 0001:000007E4       Finalization
 0001:00000814       DsnConst
 0001:0000081C       DosDateTimeToFileTime
 0001:00000824       FlushFileBuffers
 0001:0000082C       GetCurrentThreadId
 0001:00000834       GetFileTime
 0001:0000083C       GetUserDefaultLCID
 0001:00000844       GlobalAddAtom
 0001:0000084C       GlobalAlloc
 0001:00000854       GlobalLock
 0001:0000085C       GlobalSize
 0001:00000864       GlobalUnlock
 0001:0000086C       LocalFileTimeToFileTime
 0001:00000874       MulDiv
 0001:0000087C       CreateFontIndirect
 0001:00000884       DeleteObject
 0001:0000088C       GetBkMode
 0001:00000894       GetDeviceCaps
 0001:0000089C       GetStockObject
 0001:000008A4       Rectangle
 0001:000008AC       SelectObject
 0001:000008B4       SetBkMode
 0001:000008BC       BeginDeferWindowPos
 0001:000008C4       BeginPaint
 0001:000008CC       CallNextHookEx
 0001:000008D4       ClientToScreen
 0001:000008DC       ClipCursor
 0001:000008E4       CreateWindowEx
 0001:000008EC       DefWindowProc
 0001:000008F4       DeferWindowPos
 0001:000008FC       DestroyWindow
 0001:00000904       DispatchMessage
 0001:0000090C       DrawEdge
 0001:00000914       DrawFocusRect
 0001:0000091C       DrawFrameControl
 0001:00000924       DrawIconEx
 0001:0000092C       DrawText
 0001:00000934       EndDeferWindowPos
 0001:0000093C       EndPaint
 0001:00000944       EnumWindows
 0001:0000094C       FillRect
 0001:00000954       GetActiveWindow
 0001:0000095C       GetCapture
 0001:00000964       GetClassInfo
 0001:0000096C       GetClientRect
 0001:00000974       GetCursor
 0001:0000097C       GetCursorPos
 0001:00000984       GetDC
 0001:0000098C       GetIconInfo
 0001:00000994       GetKeyState
 0001:0000099C       GetKeyboardState
 0001:000009A4       GetParent
 0001:000009AC       GetSystemMetrics
 0001:000009B4       GetWindowLong
 0001:000009BC       GetWindowPlacement
 0001:000009C4       GetWindowRect
 0001:000009CC       InflateRect
 0001:000009D4       InvalidateRect
 0001:000009DC       IsIconic
 0001:000009E4       IsRectEmpty
 0001:000009EC       IsWindowVisible
 0001:000009F4       KillTimer
 0001:000009FC       LoadBitmap
 0001:00000A04       LoadCursor
 0001:00000A0C       MapWindowPoints
 0001:00000A14       MessageBeep
 0001:00000A1C       OffsetRect
 0001:00000A24       PeekMessage
 0001:00000A2C       PostMessage
 0001:00000A34       PostQuitMessage
 0001:00000A3C       PtInRect
 0001:00000A44       RegisterClass
 0001:00000A4C       RegisterClipboardFormat
 0001:00000A54       RegisterWindowMessage
 0001:00000A5C       ReleaseCapture
 0001:00000A64       ReleaseDC
 0001:00000A6C       RemoveProp
 0001:00000A74       ScreenToClient
 0001:00000A7C       SendMessage
 0001:00000A84       SetActiveWindow
 0001:00000A8C       SetCapture
 0001:00000A94       SetCursor
 0001:00000A9C       SetFocus
 0001:00000AA4       SetParent
 0001:00000AAC       SetProp
 0001:00000AB4       SetTimer
 0001:00000ABC       SetWindowLong
 0001:00000AC4       SetWindowPlacement
 0001:00000ACC       SetWindowPos
 0001:00000AD4       SetWindowsHookEx
 0001:00000ADC       ShowWindow
 0001:00000AE4       SystemParametersInfo
 0001:00000AEC       TranslateMessage
 0001:00000AF4       UnhookWindowsHookEx
 0001:00000AFC       UnionRect
 0001:00000B04       UnregisterClass
 0001:00000B0C       UpdateWindow
 0001:00000B14       SmallPointToPoint
 0001:00000B28       CreateWindow
 0001:00000B5C       Finalization
 0001:00000B8C       Windows
 0001:00000BD4       Finalization
 0001:00000C04       Messages
 0001:00001554       TInterface.Create
 0001:000015A0       TInterface.Free
 0001:000015BC       TInterface.AddRef
 0001:000015D8       TInterface.Release
 0001:00001608       TInterface.GetVersion
 0001:0000161C       ReleaseException
 0001:00001638       Finalization
 0001:00001668       VirtIntf
 0001:000019F0       ImageList_Draw
 0001:000019F8       Finalization
 0001:00001A28       CommCtrl
 0001:000024B8       Finalization
 0001:000024E8       Imm
 0001:00002560       Finalization
 0001:00002590       ShlObj
 0001:00002598       Finalization
 0001:000025C8       UrlMon
 0001:000025D0       Finalization
 0001:00002600       WinInet
 0001:00002608       Finalization
 0001:00002638       RegStr
 0001:00002640       Finalization
 0001:00002670       ShellAPI
 0001:000026C8       Finalization
 0001:000026F8       WinSpool
 0001:00002750       Finalization
 0001:00002780       CommDlg
 0001:00002788       Finalization
 0001:000027B8       Dlgs
 0001:00002C3C       TIStreamAdapter.Create
 0001:00002CA0       TIStreamAdapter.Write
 0001:00002CDC       TIStreamAdapter.Stat
 0001:00002D34       TIStreamAdapter.GetModifyTime
 0001:00002D4C       TIStreamAdapter.SetModifyTime
 0001:00002D5C       TIMemoryStream.Create
 0001:00002DC4       TIMemoryStream.GetMemoryStream
 0001:00002DE0       TIFileStream.Create
 0001:00002E40       TIFileStream.GetFileStream
 0001:00002E5C       TIFileStream.Stat
 0001:00002EA8       TIFileStream.GetModifyTime
 0001:00002EC8       TIFileStream.SetModifyTime
 0001:00002EE4       TIFileStream.Commit
 0001:00002F14       TVirtualStream.Create
 0001:00002FC8       TVirtualStream.GetModifyTime
 0001:00002FF8       TVirtualStream.SetModifyTime
 0001:00003024       Finalization
 0001:00003054       IStreams
 0001:0000322C       Finalization
 0001:0000325C       DesignMenus
 0001:00003E50       RegisterPropertyMapper
 0001:00003E6C       RegisterPropertyInCategory
 0001:00003E98       RegisterPropertyInCategory
 0001:00003EC8       RegisterPropertyInCategory
 0001:00003EF8       RegisterPropertyInCategory
 0001:00003F24       RegisterPropertiesInCategory
 0001:00003FF8       RegisterPropertiesInCategory
 0001:00004048       RegisterPropertiesInCategory
 0001:00004098       RegisterDesignNotification
 0001:000040B4       UnregisterDesignNotification
 0001:000040D0       TBasePropertyEditor.Create
 0001:00004118       TBaseComponentEditor.Create
 0001:00004194       RegisterComponentEditor
 0001:000041BC       TDesignerSelections.Add
 0001:000041E0       TDesignerSelections.Copy
 0001:00004258       TDesignerSelections.Create
 0001:000042AC       TDesignerSelections.Destroy
 0001:000042E8       TDesignerSelections.Equals
 0001:00004358       TDesignerSelections.Get
 0001:0000437C       TDesignerSelections.GetCount
 0001:00004398       CreateSelectionList
 0001:000043C0       RegisterPropertyEditor
 0001:000043F4       SetPropertyEditorGroup
 0001:0000441C       UnlistPublishedProperty
 0001:00004460       TBaseSelectionEditor.Create
 0001:000044A4       RegisterSelectionEditor
 0001:000044CC       TBaseCustomModule.Create
 0001:00004514       TBaseCustomModule.DesignClass
 0001:0000452C       RegisterCustomModule
 0001:00004558       TDragTarget.Create
 0001:000045AC       RegisterDragTarget
 0001:000045D4       RegisterDesignDragObject
 0001:000045F0       Finalization
 0001:00004620       DesignIntf
 0001:00004890       Finalization
 0001:000048C0       RichEdit
 0001:00006E2C       RegisterPackageWizard
 0001:00006E48       TNotifierObject.AfterSave
 0001:00006E54       TNotifierObject.BeforeSave
 0001:00006E60       TNotifierObject.Destroyed
 0001:00006E6C       TNotifierObject.Modified
 0001:00006E78       Finalization
 0001:00006EB4       ToolsAPI
 0001:00006F6C       Finalization
 0001:00006F9C       DesignConst
 0001:00007AB8       OffsetRect
 0001:00007B04       SameItem
 0001:00007B44       ExtractPersistent
 0001:00007BC8       ExtractComponent
 0001:00007C04       Spacing
 0001:00007C48       PointZero
 0001:00007C74       TDesigner.BeginSelect
 0001:00007C8C       TDesigner.CancelDragging
 0001:00007CA0       TDesigner.ClearSelection
 0001:00007CB8       TDesigner.Close
 0001:00007CEC       TDesigner.Create
 0001:00007DE0       TDesigner.DeleteSelection
 0001:00007E00       TDesigner.Destroy
 0001:00007E34       TDesigner.DoDragCreate
 0001:00007E9C       TDesigner.DoDragMove
 0001:00007F54       TDesigner.DoDragSelect
 0001:00008034       TDesigner.DoDragSize
 0001:000080B0       TDesigner.DragBegin
 0001:00008160       TDesigner.DragBoxesMoveTo
 0001:000081B8       TDesigner.DragBoxesOff
 0001:000081E4       TDesigner.DragBoxesOn
 0001:000082E4       TDesigner.DragCancel
 0001:00008304       TDesigner.DragEnd
 0001:0000840C       TDesigner.DragTo
 0001:0000846C       TDesigner.Edit
 0001:00008484       TDesigner.EndSelect
 0001:0000849C       TDesigner.FindNearestItem
 0001:00008718       TDesigner.ForceCommonSelectParent
 0001:000087C0       TDesigner.Free
 0001:000087E0       Swap
 0001:0000880C       Adjust
 0001:00008880       TDesigner.GetDragRect
 0001:00008B74       TDesigner.GetGridSize
 0001:00008B98       TDesigner.GetGridAligned
 0001:00008BB4       TDesigner.GetLocked
 0001:00008BD0       TDesigner.IsDesignerSelected
 0001:00008C78       MoveControls
 0001:00008DB4       HandleEscape
 0001:00008F44       TDesigner.Key
 0001:00009004       TDesigner.Lock
 0001:00009020       TDesigner.Modified
 0001:00009040       TDesigner.MouseDown
 0001:00009428       TDesigner.MouseMove
 0001:00009454       TDesigner.MouseUp
 0001:00009480       ExpandRect
 0001:000094BC       TDesigner.MoveBy
 0001:00009600       TDesigner.PointToGrid
 0001:00009668       TDesigner.Select
 0001:0000973C       TDesigner.SelectedItem
 0001:00009778       TDesigner.SetGridAligned
 0001:00009794       TDesigner.SetGridSize
 0001:000097B8       TDesigner.SnapToGrid
 0001:00009824       TDesigner.Unlock
 0001:00009840       TPersistentItem.Contains
 0001:00009858       TPersistentItem.Create
 0001:000098A8       TPersistentItem.Delete
 0001:000098C8       TPersistentItem.Equals
 0001:00009958       TPersistentItem.GetBoundsRect
 0001:00009988       TPersistentItem.GetExtendedRect
 0001:000099FC       TPersistentItem.GetClientRect
 0001:00009A94       TPersistentItem.GetItem
 0001:00009AB0       TPersistentItem.GetNamePath
 0001:00009AD4       TPersistentItem.GetParent
 0001:00009AEC       TPersistentItem.IsContainer
 0001:00009B00       TPersistentItem.HasSelectableChildren
 0001:00009B14       TPersistentItem.SetBoundsRect
 0001:00009B2C       TPersistentItem.ValidateDeletable
 0001:00009B4C       TXorDragBoxes.Add
 0001:00009C14       TXorDragBoxes.BoundingRect
 0001:00009CD8       TXorDragBoxes.Change
 0001:00009D4C       TXorDragBoxes.Done
 0001:00009D68       TXorDragBoxes.DrawBoxes
 0001:00009DB8       TXorDragBoxes.MoveBy
 0001:00009E30       TNullTools.ToolSelected
 0001:00009E44       TSimpleSelections.Add
 0001:00009EA4       TSimpleSelections.BeginSelections
 0001:00009EB4       TSimpleSelections.Create
 0001:00009F08       TSimpleSelections.Clear
 0001:00009F28       TSimpleSelections.Destroy
 0001:00009F64       TSimpleSelections.EndSelections
 0001:00009F90       TSimpleSelections.GetCount
 0001:00009FC0       TSimpleSelections.GetItems
 0001:0000A04C       TSimpleSelections.Remove
 0001:0000A07C       TSimpleSelections.IndexOf
 0001:0000A13C       TSimpleSelections.Modified
 0001:0000A178       TSimpleSelections.Remove
 0001:0000A1A8       TSimpleSelections.Selected
 0001:0000A1CC       TSimpleSelections.Toggle
 0001:0000A208       TSimpleSelections.GetSelectionLevel
 0001:0000A224       TSelectionListenerHelper.AddListener
 0001:0000A244       TSelectionListenerHelper.Create
 0001:0000A29C       TSelectionListenerHelper.RemoveListener
 0001:0000A2BC       TSelectionListenerHelper.SelectionChanged
 0001:0000A368       Finalization
 0001:0000A398       Designer
 0001:0000A3A0       AddProxy
 0001:0000A3D4       RemoveProxy
 0001:0000A42C       RenameProxyClass
 0001:0000A4D4       CreateProxyClass
 0001:0000A590       DestroyProxyClass
 0001:0000A5CC       CreateProxyMethod
 0001:0000A66C       FindProxyMethod
 0001:0000A6D4       DestroyProxyMethod
 0001:0000A768       AllocMethod
 0001:0000A790       FreeMethod
 0001:0000A7AC       FreeMethods
 0001:0000A800       DestroyHook
 0001:0000A81C       OwnedBy
 0001:0000A854       NotificationHook
 0001:0000A8F4       CreateSubClass
 0001:0000A990       CreateSubClass
 0001:0000A9B4       ChangeToProxyClass
 0001:0000A9F8       DestroySubClass
 0001:0000AA9C       RenameSubClass
 0001:0000AB2C       CreateSubClassMethod
 0001:0000AB9C       RenameSubClassMethod
 0001:0000ABE8       DestroySubClassMethod
 0001:0000AC08       IsProxyClass
 0001:0000AC64       Finalization
 0001:0000ACA0       Proxies
 0001:0000C6D4       PossibleStream
 0001:0000C79C       TPropertyEditor.Create
 0001:0000C814       TPropertyEditor.Destroy
 0001:0000C854       TPropertyEditor.Activate
 0001:0000C860       TPropertyEditor.AllEqual
 0001:0000C87C       TPropertyEditor.Edit
 0001:0000C990       TPropertyEditor.AutoFill
 0001:0000C9B0       TPropertyEditor.GetAttributes
 0001:0000C9D0       TPropertyEditor.GetComponent
 0001:0000C9F4       TPropertyEditor.GetFloatValue
 0001:0000CA14       TPropertyEditor.GetFloatValueAt
 0001:0000CA4C       TPropertyEditor.GetMethodValue
 0001:0000CA6C       TPropertyEditor.GetMethodValueAt
 0001:0000CAA4       TPropertyEditor.GetEditLimit
 0001:0000CABC       TPropertyEditor.GetName
 0001:0000CAE0       TPropertyEditor.GetOrdValue
 0001:0000CB00       TPropertyEditor.GetOrdValueAt
 0001:0000CB38       TPropertyEditor.GetPrivateDirectory
 0001:0000CB68       TPropertyEditor.GetProperties
 0001:0000CB74       TPropertyEditor.GetPropInfo
 0001:0000CB90       TPropertyEditor.GetPropType
 0001:0000CBB0       TPropertyEditor.GetStrValue
 0001:0000CBD0       TPropertyEditor.GetStrValueAt
 0001:0000CC08       TPropertyEditor.GetVarValue
 0001:0000CC28       TPropertyEditor.GetVarValueAt
 0001:0000CC60       TPropertyEditor.GetValue
 0001:0000CC80       TPropertyEditor.GetVisualValue
 0001:0000CCB4       TPropertyEditor.GetValues
 0001:0000CCC0       TPropertyEditor.Initialize
 0001:0000CCCC       TPropertyEditor.Modified
 0001:0000CCEC       TPropertyEditor.SetFloatValue
 0001:0000CD4C       TPropertyEditor.SetMethodValue
 0001:0000CDA4       TPropertyEditor.SetOrdValue
 0001:0000CDFC       TPropertyEditor.SetPropEntry
 0001:0000CE34       TPropertyEditor.SetStrValue
 0001:0000CE8C       TPropertyEditor.SetVarValue
 0001:0000CEE4       TPropertyEditor.Revert
 0001:0000CF40       TPropertyEditor.SetValue
 0001:0000CF50       TPropertyEditor.ValueAvailable
 0001:0000D020       TPropertyEditor.GetInt64Value
 0001:0000D044       TPropertyEditor.GetInt64ValueAt
 0001:0000D080       TPropertyEditor.SetInt64Value
 0001:0000D0DC       TPropertyEditor.GetIntfValue
 0001:0000D0FC       TPropertyEditor.GetIntfValueAt
 0001:0000D134       TPropertyEditor.SetIntfValue
 0001:0000D18C       TPropertyEditor.GetEditValue
 0001:0000D298       TPropertyEditor.HasInstance
 0001:0000D2E4       TOrdinalProperty.AllEqual
 0001:0000D340       TOrdinalProperty.GetEditLimit
 0001:0000D358       TIntegerProperty.GetValue
 0001:0000D3A8       Error
 0001:0000D3D8       TIntegerProperty.SetValue
 0001:0000D4E4       TCharProperty.GetValue
 0001:0000D540       TCharProperty.SetValue
 0001:0000D654       TEnumProperty.GetAttributes
 0001:0000D674       TEnumProperty.GetValue
 0001:0000D6D4       TEnumProperty.GetValues
 0001:0000D7A4       TEnumProperty.SetValue
 0001:0000D810       TInt64Property.AllEqual
 0001:0000D874       TInt64Property.GetEditLimit
 0001:0000D88C       TInt64Property.GetValue
 0001:0000D8B0       TInt64Property.SetValue
 0001:0000D8D4       TFloatProperty.AllEqual
 0001:0000D934       TFloatProperty.GetValue
 0001:0000D978       TFloatProperty.SetValue
 0001:0000D9A0       TStringProperty.AllEqual
 0001:0000DA40       TStringProperty.GetEditLimit
 0001:0000DA7C       TStringProperty.GetValue
 0001:0000DA98       TStringProperty.SetValue
 0001:0000DAB4       TComponentNameProperty.GetAttributes
 0001:0000DAD4       TComponentNameProperty.GetEditLimit
 0001:0000DAEC       TNestedProperty.Create
 0001:0000DB50       TNestedProperty.Destroy
 0001:0000DB74       TSetElementProperty.Create
 0001:0000DBC8       TSetElementProperty.AllEqual
 0001:0000DC4C       TSetElementProperty.GetAttributes
 0001:0000DC6C       TSetElementProperty.GetName
 0001:0000DC9C       TSetElementProperty.GetValue
 0001:0000DCE0       TSetElementProperty.GetValues
 0001:0000DD0C       TSetElementProperty.SetValue
 0001:0000DD68       TSetProperty.GetAttributes
 0001:0000DD88       TSetProperty.GetProperties
 0001:0000DDF4       TSetProperty.GetValue
 0001:0000DEEC       TClassProperty.GetAttributes
 0001:0000DF0C       TClassProperty.GetProperties
 0001:0000DFE0       TClassProperty.GetValue
 0001:0000E024       TComponentProperty.Edit
 0001:0000E088       TComponentProperty.GetAttributes
 0001:0000E110       TComponentProperty.GetSelections
 0001:0000E194       TComponentProperty.GetProperties
 0001:0000E264       TComponentProperty.GetEditLimit
 0001:0000E27C       TComponentProperty.GetValue
 0001:0000E2A8       TComponentProperty.GetValues
 0001:0000E2D4       TComponentProperty.SetValue
 0001:0000E340       TComponentProperty.AllEqual
 0001:0000E3F0       TComponentProperty.GetComponentReference
 0001:0000E40C       TComponentProperty.FilterFunc
 0001:0000E434       TInterfaceProperty.AllEqual
 0001:0000E508       TInterfaceProperty.GetComponent
 0001:0000E590       TInterfaceProperty.GetComponentReference
 0001:0000E5EC       TInterfaceProperty.GetSelections
 0001:0000E6C0       TInterfaceProperty.ReceiveComponentNames
 0001:0000E758       TInterfaceProperty.GetValues
 0001:0000E7C4       TInterfaceProperty.SetValue
 0001:0000E878       TMethodProperty.AllEqual
 0001:0000E8E0       TMethodProperty.AllNamed
 0001:0000E968       TMethodProperty.Edit
 0001:0000EA40       TMethodProperty.GetAttributes
 0001:0000EA60       TMethodProperty.GetEditLimit
 0001:0000EA78       TMethodProperty.GetFormMethodName
 0001:0000EBB0       TMethodProperty.GetTrimmedEventName
 0001:0000EC0C       TMethodProperty.GetValue
 0001:0000EC3C       TMethodProperty.GetValues
 0001:0000EC68       CheckChainCall
 0001:0000ED74       TMethodProperty.SetValue
 0001:0000EED4       TDateProperty.GetAttributes
 0001:0000EEF4       TDateProperty.GetValue
 0001:0000EF3C       TDateProperty.SetValue
 0001:0000EF7C       TTimeProperty.GetAttributes
 0001:0000EF9C       TTimeProperty.GetValue
 0001:0000EFE4       TTimeProperty.SetValue
 0001:0000F024       TDateTimeProperty.GetAttributes
 0001:0000F044       TDateTimeProperty.GetValue
 0001:0000F08C       TDateTimeProperty.SetValue
 0001:0000F128       TPropInfoList.Create
 0001:0000F1BC       TPropInfoList.Destroy
 0001:0000F1FC       TPropInfoList.Contains
 0001:0000F2BC       TPropInfoList.Delete
 0001:0000F30C       TPropInfoList.Get
 0001:0000F330       TPropInfoList.Intersect
 0001:0000F37C       InterfaceInheritsFrom
 0001:0000F3F8       RegisterPropertyEditor
 0001:0000F498       SetPropertyEditorGroup
 0001:0000F4F4       GetEditorClass
 0001:0000F7DC       GetComponentProperties
 0001:0000FC00       RegisterPropertyMapper
 0001:0000FC58       TComponentEditor.Create
 0001:0000FCF0       TComponentEditor.Edit
 0001:0000FD10       TComponentEditor.GetComponent
 0001:0000FD2C       TComponentEditor.GetDesigner
 0001:0000FD4C       TComponentEditor.GetVerbCount
 0001:0000FD64       TComponentEditor.GetVerb
 0001:0000FD78       TComponentEditor.ExecuteVerb
 0001:0000FD88       TComponentEditor.Copy
 0001:0000FD94       TComponentEditor.IsInInlined
 0001:0000FDB8       TComponentEditor.PrepareItem
 0001:0000FDCC       TDefaultEditor.CheckEdit
 0001:0000FDF8       ReplaceBest
 0001:0000FE34       TDefaultEditor.EditProperty
 0001:0000FFA0       TDefaultEditor.Edit
 0001:000100C4       RegisterComponentEditor
 0001:00010128       GetComponentEditor
 0001:000101FC       TSelectionEditor.Create
 0001:00010254       TSelectionEditor.ExecuteVerb
 0001:00010268       TSelectionEditor.GetVerb
 0001:00010284       TSelectionEditor.GetVerbCount
 0001:0001029C       TSelectionEditor.RequiresUnits
 0001:000102A8       TSelectionEditor.PrepareItem
 0001:00010398       TSelectionEditorList.Add
 0001:000103EC       TSelectionEditorList.Create
 0001:00010450       TSelectionEditorList.Get
 0001:000104C8       TSelectionEditorList.GetCount
 0001:000105CC       TSelectionEditorDefinition.Create
 0001:00010634       TSelectionEditorDefinition.Matches
 0001:00010658       TSelectionEditorDefinitionList.GetItem
 0001:0001067C       RegisterSelectionEditor
 0001:000106C8       GetSelectionEditors
 0001:00010840       GetSelectionEditors
 0001:000108B8       GetSelectionEditors
 0001:00010934       TCustomModule.Create
 0001:00010998       TCustomModule.Destroy
 0001:000109D4       TCustomModule.ExecuteVerb
 0001:000109E4       TCustomModule.GetAttributes
 0001:00010A00       TCustomModule.GetVerb
 0001:00010A1C       TCustomModule.GetVerbCount
 0001:00010A34       TCustomModule.Nestable
 0001:00010A48       TCustomModule.PrepareItem
 0001:00010A5C       TCustomModule.Saving
 0001:00010A68       TCustomModule.ValidateComponent
 0001:00010ACC       TCustomModule.ValidateComponentClass
 0001:00010BA0       ClassInheritsFrom
 0001:00010BE4       AncestorNameMatches
 0001:00010C70       NewEditorGroup
 0001:00010CC4       NotifyGroupChange
 0001:00010D00       UnnotifyGroupChange
 0001:00010D20       FreeEditorGroup
 0001:00011070       TVariantTypeProperty.AllEqual
 0001:00011120       TVariantTypeProperty.GetAttributes
 0001:00011140       TVariantTypeProperty.GetName
 0001:00011170       TVariantTypeProperty.GetValue
 0001:00011228       TVariantTypeProperty.GetValues
 0001:000112A8       GetSelectedType
 0001:00011344       TVariantTypeProperty.SetValue
 0001:00011438       TVariantProperty.GetAttributes
 0001:00011458       TVariantProperty.GetProperties
 0001:00011484       GetVariantStr
 0001:00011544       TVariantProperty.GetValue
 0001:000115E0       Cast
 0001:000116E4       TVariantProperty.SetValue
 0001:00011810       TEditActionSelectionEditor.GetVerb
 0001:0001184C       TEditActionSelectionEditor.GetVerbCount
 0001:00011864       TEditActionSelectionEditor.PrepareItem
 0001:00011BFC       TEditActionSelectionEditor.HandleToFront
 0001:00011C18       TEditActionSelectionEditor.HandleToBack
 0001:00011C34       TEditActionSelectionEditor.HandleUndo
 0001:00011C50       TEditActionSelectionEditor.HandleCut
 0001:00011C6C       TEditActionSelectionEditor.HandleCopy
 0001:00011C88       TEditActionSelectionEditor.HandlePaste
 0001:00011CA4       TEditActionSelectionEditor.HandleDelete
 0001:00011CC0       TEditActionSelectionEditor.HandleSelectAll
 0001:00011CDC       TEditActionSelectionEditor.EditAction
 0001:00011D8C       TEditActionSelectionEditor.GetEditState
 0001:00011E4C       Finalization
 0001:00011EC0       DesignEditors
 0001:00012040       Finalization
 0001:00012070       LibConst
 0001:00012464       MethodsEqual
 0001:0001249C       TUpdateFiler.Create
 0001:0001251C       TUpdateFiler.Destroy
 0001:00012558       TUpdateFiler.Empty
 0001:0001257C       TUpdateFiler.Filter
 0001:000125DC       GetAncestorUpdates
 0001:000126A8       UpdateObject
 0001:000127AC       TUpdateFiler.Update
 0001:00012820       TUpdateFiler.FilterProp
 0001:00012880       TUpdateFiler.DefineProperty
 0001:00012920       ReadBinary
 0001:000129BC       TUpdateFiler.DefineBinaryProperty
 0001:00012A40       TUpdateFiler.FlushBuffer
 0001:00012AAC       TChildUpdateObjects.Create
 0001:00012B50       TChildUpdateObjects.Destroy
 0001:00012B8C       TChildUpdateObjects.GetAncestor
 0001:00012BB0       TChildUpdateObjects.GetAncestorCount
 0001:00012BCC       TChildUpdateObjects.GetDescendents
 0001:00012BF0       TChildUpdateObjects.GetDescendentCount
 0001:00012C0C       TChildUpdateObjects.AddToAncestors
 0001:00012C38       TChildUpdateObjects.AddToDescendents
 0001:00012D14       TPairing.Create
 0001:00012DA8       TPairing.Destroy
 0001:00012DD8       TPairing.SetAncestor
 0001:00012E3C       TPairing.SetComponent
 0001:00012E88       TPairing.SetAncestorRoot
 0001:00012EDC       TPairing.SetComponentRoot
 0001:00012F30       TPairing.SetNew
 0001:00012F68       TPairing.DeleteDeleted
 0001:00012FF4       TPairing.CreateUpdateObjects
 0001:000130A8       TPairings.Create
 0001:00013100       TPairings.Destroy
 0001:00013138       TPairings.Clear
 0001:00013180       TPairings.AddChildren
 0001:000131F4       TPairings.Add
 0001:00013334       TPairings.GetCount
 0001:00013350       TPairings.GetPairings
 0001:00013374       TPairings.SetHasNew
 0001:000133C4       AddNestedObjects
 0001:00013498       TUpdateObject.Create
 0001:00013698       TUpdateObject.Destroy
 0001:00013724       TUpdateObject.AddChild
 0001:000137E4       TUpdateObject.ComponentDelete
 0001:0001383C       TUpdateObject.GetAncestorMethod
 0001:0001387C       TUpdateObject.GetAncestorPointer
 0001:000138D8       TUpdateObject.GetAncestorReference
 0001:00013908       TUpdateObject.FindChild
 0001:000139CC       TUpdateObject.FindChildProp
 0001:00013A28       StorableProperty
 0001:00013A94       TUpdateObject.Filter
 0001:00013D88       TUpdateObject.FilterOrder
 0001:00013E70       TUpdateObject.Revert
 0001:00014014       TUpdateObject.CanRevert
 0001:000140D0       UpdateOrder
 0001:00014214       TUpdateObject.Update
 0001:00014570       TUpdateObject.ValidateObjects
 0001:000145D0       ExtractManager
 0001:00014668       TUpdateManager.Create
 0001:00014780       TUpdateManager.Destroy
 0001:00014814       TUpdateManager.CanRevert
 0001:0001485C       TUpdateManager.Notification
 0001:000148A0       TUpdateManager.Modified
 0001:000148BC       TUpdateManager.GetHasDescendents
 0001:000148DC       TUpdateManager.GetIsDescendent
 0001:000148F8       TUpdateManager.UpdateChildren
 0001:0001493C       TUpdateManager.SetChildAncestor
 0001:00014974       TUpdateManager.RenameComponent
 0001:000149F4       TUpdateManager.RenameDescendents
 0001:00014A44       TUpdateManager.Revert
 0001:00014A80       TUpdateManager.Updating
 0001:00014AB8       BeginStream
 0001:00014B68       EndStream
 0001:00014BA4       FixupComponents
 0001:00014BC0       CreateFromAncestor
 0001:00014D9C       DoInsertInserted
 0001:00014E28       InsertInserted
 0001:00014E98       DeleteDeleted
 0001:00014EC0       CreateUpdateObjects
 0001:00014EDC       CallUpdateds
 0001:00014FCC       TUpdateManager.Update
 0001:00015140       TUpdateManager.Filter
 0001:000151C4       TUpdateManager.NameExists
 0001:0001522C       TUpdateManager.GetInstance
 0001:00015244       TUpdateManager.BeginUpdate
 0001:00015284       TUpdateManager.EndUpdate
 0001:000152C4       TUpdateManager.GetAncestor
 0001:000152E0       TUpdateManager.GetComponent
 0001:000152FC       Finalization
 0001:0001532C       Update
 0001:00015464       TOTAClass.Create
 0001:000154D0       TOTAClass.BeforeDestruction
 0001:0001555C       TOTAClass.NotifyDestroyed
 0001:000155EC       TOTAClass.GetInstance
 0001:00015604       AddToList
 0001:000156B4       ForEach
 0001:00015750       Finalization
 0001:00015780       ToolUtils
 0001:000157FC       TEvent.Create
 0001:00015850       TEvent.Destroy
 0001:000158C8       TEvent.Add
 0001:00015914       TEvent.IndexOf
 0001:00015980       TEvent.Remove
 0001:000159CC       TEvent.Send
 0001:00015A14       Finalization
 0001:00015A44       Events
 0001:000166E4       Finalization
 0001:00016714       EditIntf
 0001:00017C6C       RegisterSprigType
 0001:00017CA8       RegisterSprigType
 0001:00017CE4       FindBestSprigClass
 0001:00017D08       FindBestSprigClass
 0001:00017D54       RegisterRootSprigType
 0001:00017D90       RegisterRootSprigType
 0001:00017DCC       FindBestRootSprigClass
 0001:00017DF0       FindBestRootSprigClass
 0001:00017E3C       FlushSprigTypes
 0001:00017E74       TInformant.BeforeDestruction
 0001:00017E98       TInformant.Changed
 0001:00017EBC       TInformant.Destroy
 0001:00017EF8       TInformant.DisableNotify
 0001:00017F08       TInformant.EnableNotify
 0001:00017F34       TInformant.Notification
 0001:00017F94       TInformant.Notify
 0001:00017FEC       TInformant.Unnotify
 0001:00018058       TSprig.Add
 0001:0001812C       TSprig.AnyProblems
 0001:000181DC       TSprig.Caption
 0001:000182A0       TSprig.ClearTreeNode
 0001:00018330       TSprig.ClearTreeNode
 0001:00018348       TSprig.ClearUnneededSprigs
 0001:000183B0       TSprig.Count
 0001:000183DC       TSprig.Create
 0001:00018468       TSprig.Destroy
 0001:00018518       TSprig.DragClass
 0001:0001854C       TSprig.DragDrop
 0001:0001857C       TSprig.DragDropTo
 0001:0001865C       TSprig.DragOver
 0001:0001868C       TSprig.DragOverTo
 0001:00018758       TSprig.Find
 0001:00018784       TSprig.FindItem
 0001:00018818       TSprig.Find
 0001:00018844       TSprig.Find
 0001:00018874       TSprig.FindItemByName
 0001:00018A40       TSprig.FindPath
 0001:00018A6C       TSprig.FindItemByPath
 0001:00018B5C       TSprig.ForEach
 0001:00018BCC       TSprig.GetItem
 0001:00018C00       TSprig.Hint
 0001:00018C18       TSprig.Index
 0001:00018C4C       TSprig.IndexOf
 0001:00018C80       TSprig.UniqueName
 0001:00018CB8       TSprig.Name
 0001:00018CD4       TSprig.PrepareMenu
 0001:00018CE4       TSprig.SeekParent
 0001:00018D88       TSprig.SeekParent
 0001:00018E70       TSprig.SeekParent
 0001:00018F90       TSprig.Transient
 0001:00018FA4       TSprig.TreeNodeFor
 0001:00019060       Trimmed
 0001:000190F0       TSprig.VisualRefresh
 0001:000191CC       TSprig.CaptionFor
 0001:00019354       TSprig.PaletteOver
 0001:00019388       TSprig.PaletteOverTo
 0001:00019458       TSprig.Path
 0001:0001950C       TSprig.DeleteStyle
 0001:00019534       TSprig.CustomDelete
 0001:00019548       TSprig.ItemClass
 0001:00019574       TSprig.ParentProperty
 0001:0001958C       TSprig.FigureParent
 0001:000196B8       TSprig.FigureChildren
 0001:000197E8       TSprig.FocusItem
 0001:00019820       SortBySprigItemIndex
 0001:00019854       TSprig.SortItems
 0001:000198AC       TSprig.SortByIndex
 0001:000198C0       TSprig.ItemIndex
 0001:000198D8       TSprig.Reparent
 0001:000198E4       TSprig.ShowRegisteredMenus
 0001:00019900       TSprig.ReparentChildren
 0001:0001993C       TSprig.IncludeIndexInCaption
 0001:00019950       TSprig.SetExpanded
 0001:00019994       TSprig.Invalidate
 0001:000199FC       TSprig.SelectItems
 0001:00019A34       TSprig.Parents
 0001:00019A68       TSprig.DesigntimeChange
 0001:00019A88       TSprig.RuntimeChange
 0001:00019AA8       TSprig.GetDesigner
 0001:00019AF0       TSprig.GetImageIndex
 0001:00019B1C       TSprig.SetImageIndex
 0001:00019B38       TSprig.GetStateIndex
 0001:00019B60       TSprig.Construct
 0001:00019C3C       TSprig.BeginUpdate
 0001:00019C5C       TSprig.EndUpdate
 0001:00019C7C       TSprig.EnsureUpdate
 0001:00019C9C       TSprig.Hidden
 0001:00019D40       TSprig.Ghosted
 0001:00019D5C       TSprig.CanMove
 0001:00019E64       TSprig.Move
 0001:00019F2C       TSprig.AddType
 0001:00019F3C       TSprig.AddTypeCount
 0001:00019F54       TSprig.CanAdd
 0001:00019F78       TSprig.GetAddType
 0001:00019F94       TSprig.Owner
 0001:00019FAC       TSprig.CopyGlyph
 0001:00019FE8       TRootSprig.AddItem
 0001:0001A010       TRootSprig.DeleteStyle
 0001:0001A024       TRootSprig.SelectionSurvey
 0001:0001A0F8       DoCustomDelete
 0001:0001A17C       TRootSprig.EditAction
 0001:0001A2B8       TRootSprig.GetEditState
 0001:0001A398       TRootSprig.SelectedSprig
 0001:0001A408       TRootSprig.CanMove
 0001:0001A448       TRootSprig.Move
 0001:0001A488       TRootSprig.AddType
 0001:0001A4B8       TRootSprig.AddTypeCount
 0001:0001A4EC       TRootSprig.GetAddType
 0001:0001A528       TRootSprig.CanAdd
 0001:0001A560       TRootSprig.Create
 0001:0001A5F0       TRootSprig.DesigntimeChange
 0001:0001A5FC       TRootSprig.Destroy
 0001:0001A658       TRootSprig.FigureParent
 0001:0001A664       TRootSprig.FindItem
 0001:0001A6B8       MatchingItem
 0001:0001A73C       TRootSprig.FindItemByName
 0001:0001A7F0       TRootSprig.FindItemByPath
 0001:0001A8F0       TRootSprig.SelectItems
 0001:0001A9A4       TRootSprig.PaletteOver
 0001:0001A9C0       TRootSprig.RemoveItem
 0001:0001AA04       TRootSprig.ValidateParent
 0001:0001AA5C       ValidateSprigs
 0001:0001AADC       TRootSprig.Repopulate
 0001:0001AC74       TRootSprig.RuntimeChange
 0001:0001ACD0       TRootSprig.PreRefreshTreeView
 0001:0001ACFC       TRootSprig.PostRefreshTreeView
 0001:0001AD24       MakeExpanded
 0001:0001AD5C       TRootSprig.RestoreExpandState
 0001:0001AD94       TRootSprig.StoreExpandState
 0001:0001ADDC       TRootSprig.StoreTreeState
 0001:0001AE08       TRootSprig.DepopulateTreeView
 0001:0001AE58       TRootSprig.RefreshTreeView
 0001:0001AEAC       TRootSprig.GetDesigner
 0001:0001AEE4       TRootSprig.ItemDeleted
 0001:0001AF2C       TRootSprig.ItemInserted
 0001:0001AF40       TRootSprig.ItemsModified
 0001:0001AFA8       TRootSprig.AcceptsClass
 0001:0001AFCC       TRootSprig.BeginUpdate
 0001:0001AFDC       TRootSprig.EndUpdate
 0001:0001B030       TRootSprig.EnsureUpdate
 0001:0001B074       TRootSprig.SetSprigDesigner
 0001:0001B124       TRootSprig.TreeView
 0001:0001B150       TSprigType.Create
 0001:0001B1B8       TSprigType.Score
 0001:0001B1F8       TSprigIntfType.Create
 0001:0001B268       TSprigIntfType.Match
 0001:0001B2C4       TSprigTypeList.Add
 0001:0001B2FC       TSprigTypeList.Add
 0001:0001B334       TSprigTypeList.ClearCache
 0001:0001B350       TSprigTypeList.Create
 0001:0001B3B8       TSprigTypeList.Destroy
 0001:0001B400       TSprigTypeList.FreeEditorGroup
 0001:0001B498       TSprigTypeList.Match
 0001:0001B4D0       TSprigTypeList.MatchCache
 0001:0001B4FC       TSprigTypeList.MatchClass
 0001:0001B5E8       TDragSprigs.Add
 0001:0001B608       TDragSprigs.Create
 0001:0001B664       TDragSprigs.Destroy
 0001:0001B6A0       TDragSprigs.GetSprig
 0001:0001B6C4       TDragSprigs.Count
 0001:0001B6E0       TPropertySprig.DeleteStyle
 0001:0001B6F4       TPropertySprig.Ghosted
 0001:0001B708       TCollectionSprig.DeleteStyle
 0001:0001B71C       TCollectionSprig.CustomDelete
 0001:0001B750       TCollectionSprig.Caption
 0001:0001B778       TCollectionSprig.FigureParent
 0001:0001B798       TCollectionSprig.SortByIndex
 0001:0001B7AC       TCollectionSprig.Name
 0001:0001B7F4       TCollectionSprig.Create
 0001:0001B848       TCollectionSprig.AddType
 0001:0001B878       TCollectionSprig.AddTypeCount
 0001:0001B898       TCollectionSprig.GetAddType
 0001:0001B8C0       TCollectionSprig.Owner
 0001:0001B8DC       TCollectionSprig.FigureChildren
 0001:0001B97C       TCollectionItemSprig.FigureParent
 0001:0001B99C       TCollectionItemSprig.Name
 0001:0001B9BC       TCollectionItemSprig.ItemIndex
 0001:0001B9DC       TCollectionItemSprig.DragDropTo
 0001:0001BA38       TCollectionItemSprig.DragOverTo
 0001:0001BA5C       TCollectionItemSprig.IncludeIndexInCaption
 0001:0001BA70       TCollectionItemSprig.AddType
 0001:0001BA94       TCollectionItemSprig.AddTypeCount
 0001:0001BAB8       TCollectionItemSprig.GetAddType
 0001:0001BAE0       TCollectionItemSprig.Owner
 0001:0001BAFC       TCollectionItemSprig.Ghosted
 0001:0001BB10       TSprigIndex.Add
 0001:0001BBB0       TSprigIndex.Create
 0001:0001BC14       TSprigIndex.Destroy
 0001:0001BC50       TSprigIndex.Find
 0001:0001BCE4       TSprigIndex.Remove
 0001:0001BD94       TSprigTreeNode.Destroy
 0001:0001BDE0       TComponentSprig.Create
 0001:0001BE34       TComponentSprig.Create
 0001:0001BE90       TComponentSprig.Owner
 0001:0001BEAC       TComponentSprig.UniqueName
 0001:0001BF50       TAbstractSprig.Ghosted
 0001:0001BF64       TTransientSprig.Transient
 0001:0001BF78       TAbstractCollectionSprig.Create
 0001:0001BFCC       TTransientCollectionSprig.Create
 0001:0001C020       RootSprigList
 0001:0001C04C       TRootSprigList.Create
 0001:0001C0A4       TRootSprigList.DesignerClosed
 0001:0001C10C       TRootSprigList.DesignerOpened
 0001:0001C184       TRootSprigList.Destroy
 0001:0001C1C0       TRootSprigList.FindRoot
 0001:0001C214       TRootSprigList.ItemDeleted
 0001:0001C244       TRootSprigList.ItemInserted
 0001:0001C274       TRootSprigList.ItemsModified
 0001:0001C2A0       Finalization
 0001:0001C2F8       TreeIntf
 0001:0001C37C       DoComponentFromWindow
 0001:0001C408       ComponentFromWindow
 0001:0001C424       FindTopComponent
 0001:0001C480       TopLevelComponent
 0001:0001C4B0       TopLevelComponents
 0001:0001C4BC       ActivateTopLevelComponent
 0001:0001C53C       CaptionFromComponent
 0001:0001C5D0       IsComponentDesigner
 0001:0001C65C       RegisterHandler
 0001:0001C674       UnregisterHandler
 0001:0001C68C       Finalization
 0001:0001C6BC       TopLevels
 0001:0001E8AC       RegisterNoIcons
 0001:0001E8FC       IsNoIconComponent
 0001:0001E958       ProtectEnvironment
 0001:0001E974       RegisterDesignNotification
 0001:0001E9B4       UnregisterDesignNotification
 0001:0001EA94       TCustomModuleReg.Create
 0001:0001EAF8       TCustomModuleReg.GetBaseClassName
 0001:0001EB2C       RegisterCustomModuleImp
 0001:0001EB6C       GroupChangeNotification
 0001:0001EBC4       ContainsComponentOfClass
 0001:0001EC2C       ValidateFrameInsert
 0001:0001EC68       TryRename
 0001:0001ECE4       SafeSave
 0001:0001F084       TBounder.Create
 0001:0001F108       TBounder.Move
 0001:0001F160       TBounder.GetLeft
 0001:0001F17C       TBounder.GetTop
 0001:0001F198       TBounder.GetWidth
 0001:0001F1B8       TBounder.GetHeight
 0001:0001F1D8       TBounder.SetLeft
 0001:0001F20C       TBounder.SetTop
 0001:0001F240       TBounder.SetWidth
 0001:0001F274       TBounder.SetHeight
 0001:0001F2A8       TBounder.GetBounds
 0001:0001F2CC       TBounder.SetBounds
 0001:0001F30C       TBounder.GetParent
 0001:0001F3A8       TBounder.UpdateClientInfo
 0001:0001F3E0       TBounder.GetClientHeight
 0001:0001F40C       TBounder.GetClientWidth
 0001:0001F4A0       TChildList.AddChild
 0001:0001F574       TClassPaletteItem.Create
 0001:0001F5C4       TClassPaletteItem.CreateComponent
 0001:0001F6D4       TChildrenList.AddChild
 0001:0001F700       TChildrenList.Create
 0001:0001F770       TChildrenList.ShouldInclude
 0001:0001F788       TNonAncestorList.NameList
 0001:0001F80C       TNonAncestorList.ShouldInclude
 0001:0001F840       GetNonAncestorNames
 0001:0001F8C4       TComponentRoot.AddClassProps
 0001:0001F9CC       TComponentRoot.ClearDependents
 0001:0001FA08       TComponentRoot.ClearDependencies
 0001:0001FA70       ClearComponentDependencies
 0001:0001FC14       TComponentRoot.ClearDependenciesOn
 0001:0001FC6C       FindComponent
 0001:0001FD04       TComponentRoot.CompIndexToComponent
 0001:0001FD3C       TComponentRoot.ComponentRead
 0001:0001FE40       TComponentRoot.ComponentReadAdjust
 0001:0001FE78       TComponentRoot.CopySelectionToStream
 0001:0001FEB8       TypeFromName
 0001:0001FEF4       CreateNew
 0001:00020024       TComponentRoot.Create
 0001:000203A0       TComponentRoot.CreateComponent
 0001:00020408       TComponentRoot.CreateFromStream
 0001:00020530       TComponentRoot.CreateRootAs
 0001:000205B8       TComponentRoot.CreateRootInstance
 0001:0002086C       TComponentRoot.Destroy
 0001:00020918       TComponentRoot.BeforeDestruction
 0001:00020944       TComponentRoot.ValidateComponent
 0001:0002096C       TComponentRoot.DoCreateComponent
 0001:00020E3C       TComponentRoot.FindAncestorRoot
 0001:00020EEC       TComponentRoot.FindCompClass
 0001:00020F4C       TComponentRoot.FindCurrentParent
 0001:00020FA4       TComponentRoot.FindCurrentParentItem
 0001:00021028       TComponentRoot.FindItemParent
 0001:00021144       TComponentRoot.FindObjectMethod
 0001:00021188       TComponentRoot.ForceCommonParent
 0001:000212A8       TComponentRoot.GetAncestorName
 0001:000212E0       CountComponents
 0001:00021344       TComponentRoot.GetCompCount
 0001:00021364       TComponentRoot.GetCompInfo
 0001:000213FC       CalcComponentName
 0001:000214C4       TComponentRoot.GetCompName
 0001:00021540       TComponentRoot.GetComponentRootFor
 0001:000215DC       TComponentRoot.GetComponentRootFor
 0001:00021678       TComponentRoot.GetCreateInfoFrom
 0001:000217D4       TComponentRoot.GetDependencies
 0001:00021880       TComponentRoot.GetDependentRoots
 0001:00021934       TComponentRoot.GetDesignClassName
 0001:00021988       TComponentRoot.GetEnvironment
 0001:000219AC       TComponentRoot.GetFileSystem
 0001:000219CC       TComponentRoot.GetFormEditor
 0001:00021A38       TComponentRoot.GetModule
 0001:00021A58       TComponentRoot.GetRootBaseClass
 0001:00021A78       FindRootClass
 0001:00021B1C       TComponentRoot.GetRootClass
 0001:00021B4C       TComponentRoot.GetRootName
 0001:00021B88       TComponentRoot.GetRootStream
 0001:00021C90       TComponentRoot.GoDormant
 0001:00021D90       TComponentRoot.IsDormant
 0001:00021DB0       TComponentRoot.IsFrame
 0001:00021DDC       IterateObjectMethods
 0001:00021FD4       TComponentRoot.IterateMethods
 0001:0002201C       TComponentRoot.LoadDependentModules
 0001:000220F8       TComponentRoot.ModifiedUpdateNotification
 0001:000221B4       TComponentRoot.Modified
 0001:000222F4       TComponentRoot.PasteSelectionFromStream
 0001:00022340       TComponentRoot.PrepareInputStream
 0001:000223F8       TComponentRoot.ReaderAncestorNotFound
 0001:00022604       SetChildAncestors
 0001:00022668       TComponentRoot.FrameCreateComponent
 0001:000229AC       TComponentRoot.ReaderCreateComponent
 0001:000229D8       TComponentRoot.ReaderFindComponentClass
 0001:00022AA4       FindUniqueMethod
 0001:00022BA0       TComponentRoot.ReaderFindMethod
 0001:00022BD8       TComponentRoot.ReaderObjectError
 0001:00022C4C       TComponentRoot.ReaderSetName
 0001:00022D20       TComponentRoot.ReaderReferenceName
 0001:00022D54       TComponentRoot.ReadObjectFromStream
 0001:00022E60       TComponentRoot.SelectReadStream
 0001:00022EE8       CreateMethods
 0001:0002308C       TComponentRoot.ReadStream
 0001:000232B0       TComponentRoot.RemoveDependenciesOn
 0001:000232D4       TComponentRoot.RemoveDependentLinks
 0001:000232F4       TComponentRoot.RenameComponent
 0001:00023338       CompareEventPrefix
 0001:000233B4       UniqueEventName
 0001:00023448       TComponentRoot.RenameEvents
 0001:000235BC       TComponentRoot.RenameMethod
 0001:000235E4       TComponentRoot.Resurrect
 0001:000236C8       TComponentRoot.ResurrectDependentModules
 0001:000237D8       TComponentRoot.Revert
 0001:000238E0       TComponentRoot.Select
 0001:000239E0       TComponentRoot.SetCreateInfo
 0001:00023AD8       TComponentRoot.SetFileSystem
 0001:00023AF8       TComponentRoot.SetRootName
 0001:00023B20       TComponentRoot.SetSelection
 0001:00023B7C       WriteBounds
 0001:00023CA0       DoMethod
 0001:00023D54       WriteMethods
 0001:00023E58       TComponentRoot.StreamSelection
 0001:00023F68       TComponentRoot.UniqueName
 0001:0002406C       IsOwnedBy
 0001:000240B0       TComponentRoot.EditComponent
 0001:0002418C       IsExternalLink
 0001:000241B4       RootNameOfClassName
 0001:000241F8       FindComponentDependencies
 0001:00024458       TComponentRoot.UpdateDependencies
 0001:00024560       WorkToDo
 0001:000245C4       FindNewValue
 0001:00024638       DoMethod
 0001:00024684       TComponentRoot.UpdateEvents
 0001:000246A8       TComponentRoot.UpdateOptions
 0001:00024788       Error
 0001:00024808       TComponentRoot.ValidateInheritence
 0001:00024938       TComponentRoot.VerifyEvents
 0001:000249D8       SingularOrPlural
 0001:00024A10       CheckNoFixups
 0001:00024B78       WriteStream
 0001:00024CF0       TComponentRoot.WriteRootStream
 0001:00024D3C       TComponentRoot.GetUnits
 0001:00024F24       TComponentRoot.WriterFindAncestor
 0001:0002507C       TComponentRoot.Implementor
 0001:00025094       TComponentRoot.GetRoot
 0001:000250B0       TComponentRoot.SelectedPersistent
 0001:000250E8       TComponentRoot.SelectedComponent
 0001:00025128       TComponentRoot.SpecialPropertyHelp
 0001:0002515C       TComponentRoot.CreateMethod
 0001:000251C8       TComponentRoot.GetMethodName
 0001:00025224       TComponentRoot.GetMethods
 0001:0002524C       TComponentRoot.GetPrivateDirectory
 0001:000252A4       TComponentRoot.GetSelections
 0001:00025328       TComponentRoot.MethodExists
 0001:0002534C       TComponentRoot.SelectComponent
 0001:00025440       TComponentRoot.SetSelections
 0001:00025508       TComponentRoot.ShowMethod
 0001:00025528       IsInterestingClass
 0001:00025654       TComponentRoot.ShowHelp
 0001:000257B4       SendComponentsOf
 0001:00025908       IsANestableModule
 0001:0002599C       TComponentRoot.GetComponentNames
 0001:00025B28       TComponentRoot.AddImportedRoot
 0001:00025B4C       TComponentRoot.GetComponent
 0001:00025C88       TComponentRoot.GetComponentName
 0001:00025D60       TComponentRoot.GetObject
 0001:00025D84       TComponentRoot.GetObjectName
 0001:00025E94       TComponentRoot.GetObjectNames
 0001:00025EB8       TComponentRoot.MethodFromAncestor
 0001:00025EF8       TComponentRoot.IsComponentLinkable
 0001:00025FF0       TComponentRoot.CreateComponent
 0001:0002611C       TComponentRoot.CreateCurrentComponent
 0001:000261FC       TComponentRoot.IsComponentHidden
 0001:0002621C       TComponentRoot.MakeComponentLinkable
 0001:00026258       TComponentRoot.GetIsDormant
 0001:00026274       TComponentRoot.GetProjectModules
 0001:00026294       TComponentRoot.GetAncestorDesigner
 0001:000262B8       TComponentRoot.IsSourceReadOnly
 0001:000262D8       TComponentRoot.GetScrollRanges
 0001:0002639C       TComponentRoot.InternalDeinitializeDesigner
 0001:00026528       TComponentRoot.InternalInitializeDesigner
 0001:00026760       TComponentRoot.Edit
 0001:00026824       TComponentRoot.ChainCall
 0001:00026854       TComponentRoot.ClearSelection
 0001:000268B8       CheckForFrameComponents
 0001:00026974       TComponentRoot.DeleteSelection
 0001:00026C6C       TComponentRoot.IsRootSelected
 0001:00026CC8       TComponentRoot.NoSelection
 0001:00026D2C       TComponentRoot.ModuleFileNames
 0001:00026E6C       TComponentRoot.GetRootClassName
 0001:00026EA0       TComponentRoot.CheckFileDate
 0001:00026F28       TComponentRoot.FormFileOpen
 0001:00026F58       TComponentRoot.GetFileName
 0001:00026F78       TComponentRoot.GetModifyTime
 0001:00026F94       TComponentRoot.GetTimeAtLoad
 0001:00026FB0       TComponentRoot.Rename
 0001:00027078       TComponentRoot.Save
 0001:000270EC       TComponentRoot.SetActive
 0001:00027168       TComponentRoot.SetControlsLocked
 0001:00027198       TComponentRoot.InstanceInserted
 0001:00027298       TComponentRoot.InstanceRemoved
 0001:000275A0       TComponentRoot.SelectionsChanged
 0001:00027824       TComponentRoot.CanModify
 0001:00027844       AncestorInSelection
 0001:000278E4       TComponentRoot.CanRevert
 0001:00027924       TComponentRoot.CanUndelete
 0001:00027944       TComponentRoot.DoUndelete
 0001:000279DC       TComponentRoot.FindGlobalComponent
 0001:00027A38       TComponentRoot.GetComponentEditor
 0001:00027ADC       TComponentRoot.GetCustomModule
 0001:00027AFC       TComponentRoot.GetSelection
 0001:00027B24       TComponentRoot.GetSelectionEditors
 0001:00027B98       TComponentRoot.GetTextDFM
 0001:00027BB4       TComponentRoot.DoViewAsText
 0001:00027BCC       DoAlignToGrid
 0001:00027CE4       DoFlip
 0001:00027CF0       DoTextDFM
 0001:00027D28       DoRevert
 0001:0002804C       TComponentRoot.Command
 0001:000280C0       TComponentRoot.SelectComponent
 0001:000280E4       TComponentRoot.Dialog
 0001:0002813C       TComponentRoot.GetLocked
 0001:0002815C       TComponentRoot.FindSelection
 0001:00028180       TComponentRoot.GetPaletteItem
 0001:000281E0       RenameRoot
 0001:000283B0       TComponentRoot.ValidateRename
 0001:00028770       TComponentRoot.GetCustomModuleClass
 0001:0002878C       TComponentRoot.GetUpdateManager
 0001:000287AC       TComponentRoot.UpdateManagerCreateComponent
 0001:0002880C       SameImplementation
 0001:000288C4       TComponentRoot.Updated
 0001:0002891C       TComponentRoot.Updating
 0001:00028938       TComponentRoot.WriteComponent
 0001:00028968       TComponentRoot.Deleting
 0001:00028A28       TComponentRoot.ModifiableFrame
 0001:00028A54       TComponentRoot.GetComponentDesigner
 0001:00028A74       TComponentRoot.Close
 0001:00028B60       SortItems
 0001:00028D04       MoveControls
 0001:00028E30       SpaceEqually
 0001:00028F28       Center
 0001:00029074       SelectionsAsItems
 0001:00029140       TComponentRoot.Align
 0001:000293D0       SelectionsAsItems
 0001:0002949C       TComponentRoot.Size
 0001:000296DC       TComponentRoot.SelectAll
 0001:00029780       TComponentRoot.BringToFront
 0001:00029794       TComponentRoot.SendToBack
 0001:000297A8       TComponentRoot.ZOrder
 0001:00029874       TComponentRoot.AlignToGrid
 0001:0002996C       TComponentRoot.RenameRootMethod
 0001:000299CC       TComponentRoot.ModalEdit
 0001:00029A2C       TComponentRoot.SelectItemName
 0001:00029A84       TComponentRoot.ValidateModification
 0001:00029AC0       TComponentRoot.HasSelectableChildren
 0001:00029AE4       CountItems
 0001:00029B50       AddComponents
 0001:00029C04       TComponentRoot.EnsureSelectableComponents
 0001:00029C64       TComponentRoot.GetSelectableComponentCount
 0001:00029C8C       TComponentRoot.GetSelectableComponents
 0001:00029CB8       TComponentRoot.GetBaseRegKey
 0001:00029D10       TComponentRoot.GetPathAndBaseExeName
 0001:00029D68       TComponentRoot.GetIDEOptions
 0001:00029DC0       TSelections.Create
 0001:00029E30       TSelections.Destroy
 0001:00029E80       TSelections.FindItemFor
 0001:00029EE4       TSelections.GetCount
 0001:00029F04       TSelections.GetPersistents
 0001:00029F90       TSelections.SelectionChanged
 0001:00029FB8       TComponentRoot.CanRevert
 0001:0002A098       TComponentDesigner.CancelModes
 0001:0002A0BC       TComponentDesigner.CopySelectionToStream
 0001:0002A0F0       TComponentDesigner.Create
 0001:0002A154       TComponentDesigner.DesignerOptionsChanged
 0001:0002A200       TComponentDesigner.EditAction
 0001:0002A234       TComponentDesigner.FindBaseClass
 0001:0002A2C4       TComponentDesigner.FindCustomModuleClass
 0001:0002A33C       TComponentDesigner.FindFile
 0001:0002A404       TComponentDesigner.FindRoot
 0001:0002A4CC       TComponentDesigner.FindRoot
 0001:0002A57C       TComponentDesigner.GetActiveRoot
 0001:0002A59C       TComponentDesigner.GetClassUnits
 0001:0002A6A8       TComponentDesigner.GetControlsLocked
 0001:0002A6C4       TComponentDesigner.GetEditState
 0001:0002A700       TComponentDesigner.GetFirstSelectionClass
 0001:0002A744       TComponentDesigner.GetFirstSelectionType
 0001:0002A7A4       TComponentDesigner.GetProperties
 0001:0002A828       TComponentDesigner.GetRootNames
 0001:0002A8E8       TComponentDesigner.GetRoots
 0001:0002A960       TComponentDesigner.GetRootsCount
 0001:0002A980       TComponentDesigner.GetSelection
 0001:0002A9D4       TComponentDesigner.GetSelectionName
 0001:0002AA20       TComponentDesigner.GetSelectionType
 0001:0002AA7C       TComponentDesigner.HideWindows
 0001:0002ABA4       TComponentDesigner.IsNestable
 0001:0002AC44       TComponentDesigner.IsRootBaseClass
 0001:0002ACB4       TComponentDesigner.ModalEditDone
 0001:0002ACCC       TComponentDesigner.OpenRootClass
 0001:0002ADC0       TComponentDesigner.PasteSelectionFromStream
 0001:0002ADF8       TComponentDesigner.RemoveDependenciesOn
 0001:0002AEA8       TComponentDesigner.RootActivated
 0001:0002AF64       TComponentDesigner.RootGoingDormant
 0001:0002AF94       TComponentDesigner.RootListAdd
 0001:0002AFB4       TComponentDesigner.RootListRemove
 0001:0002AFF8       TComponentDesigner.RootModified
 0001:0002B0D0       TComponentDesigner.SetControlsLocked
 0001:0002B188       TComponentDesigner.SetSelection
 0001:0002B3AC       TComponentDesigner.ShowWindows
 0001:0002B4D4       TComponentDesigner.UpdateRootDependents
 0001:0002B580       TComponentDesigner.UpdateSelections
 0001:0002B6F0       TIStreamAdapter.Create
 0001:0002B744       TIStreamAdapter.Read
 0001:0002B774       TIStreamAdapter.Seek
 0001:0002B7A4       TIStreamAdapter.Write
 0001:0002B7D4       TCompInfo.Create
 0001:0002B890       TCompInfo.Destroy
 0001:0002B8EC       TCompInfo.ClearEvent
 0001:0002B970       TCompInfo.GetClassName
 0001:0002B9A4       TCompInfo.GetEventCount
 0001:0002B9C0       TCompInfo.GetEventInfo
 0001:0002B9E4       TCompInfo.GetEventValue
 0001:0002BA60       TCompInfo.GetComponentHandle
 0001:0002BA7C       TCompInfo.GetNamePath
 0001:0002BAA0       TCompInfo.InitSubList
 0001:0002BC10       TCompInfo.GetSubInfoCount
 0001:0002BC60       TCompInfo.GetSubInfo
 0001:0002BD34       TCompInfo.GetEventName
 0001:0002BD60       TStreamAdapter.Create
 0001:0002BDB8       TStreamAdapter.Destroy
 0001:0002BE00       TStreamAdapter.Read
 0001:0002BE34       TStreamAdapter.Seek
 0001:0002BE68       TStreamAdapter.SetSize
 0001:0002BE88       TStreamAdapter.Write
 0001:0002BEBC       TDatedStreamAdapter.Create
 0001:0002BF14       TDatedStreamAdapter.GetModifyTime
 0001:0002BF30       TDatedStreamAdapter.SetModifyTime
 0001:0002BF4C       TRenameItem.Create
 0001:0002BFA4       TRenames.Create
 0001:0002BFF0       TRenames.Destroy
 0001:0002C05C       TRenames.Add
 0001:0002C0D0       TRenames.Rename
 0001:0002C134       TRenames.GetCount
 0001:0002C150       TRenames.GetItems
 0001:0002C174       TEventItem.Create
 0001:0002C1E0       TEvents.Create
 0001:0002C22C       TEvents.Destroy
 0001:0002C298       TEvents.Add
 0001:0002C300       TEvents.GetCount
 0001:0002C31C       TEvents.GetItems
 0001:0002C340       Designers
 0001:0002C358       ActiveDesigner
 0001:0002C3A8       ActiveRoot
 0001:0002C648       TDesigners.ActivateDesigner
 0001:0002C7A8       TDesigners.AddDesigner
 0001:0002C890       TDesigners.DesignerActive
 0001:0002C8E0       TDesigners.DesignerFromExtension
 0001:0002C94C       TDesigners.DesignerIndex
 0001:0002C9A4       TDesigners.DesignerOptionsChanged
 0001:0002C9E4       TDesigners.FindFile
 0001:0002CA3C       TDesigners.GetActiveDesigner
 0001:0002CA5C       TDesigners.GetAlignable
 0001:0002CAE4       TDesigners.GetControlsLocked
 0001:0002CB14       TDesigners.GetFirstSelectionType
 0001:0002CB48       TDesigners.GetProperties
 0001:0002CB70       TDesigners.GetSelection
 0001:0002CB98       TDesigners.HideWindows
 0001:0002CBD8       TDesigners.RegisteredExtensions
 0001:0002CBFC       TDesigners.RemoveDesigner
 0001:0002CCD8       TDesigners.RemoveRoot
 0001:0002CD00       TDesigners.RootComponentClass
 0001:0002CD50       TDesigners.SetControlsLocked
 0001:0002CD98       TDesigners.SetProjectName
 0001:0002CDA8       TDesigners.SetSelection
 0001:0002CDE0       TDesigners.ShowComponentHelp
 0001:0002CE48       TDesigners.ShowWindows
 0001:0002CE88       TDesigners.SpecialPropertyHelp
 0001:0002CF3C       TInternalItem.Create
 0001:0002CFC4       TInternalItem.Edit
 0001:0002D014       TInternalItem.GetChildCount
 0001:0002D02C       TInternalItem.GetChildren
 0001:0002D048       TInternalItem.GetEditor
 0001:0002D0C4       TInternalItem.Selectable
 0001:0002D0D8       TComponentItem.Create
 0001:0002D128       TComponentItem.FlipChildren
 0001:0002D134       TComponentItem.GetComponent
 0001:0002D150       TComponentItem.Selectable
 0001:0002D1C4       TComponentItem.ValidateDeletable
 0001:0002D210       TComponentItem.ZOrder
 0001:0002D220       TRootStream.Create
 0001:0002D2E4       TRootStream.Destroy
 0001:0002D390       TRootStream.GetModifyTime
 0001:0002D3AC       TRootStream.SetModifyTime
 0001:0002D3C8       TRootStream.Write
 0001:0002D3F0       TEnvironmentTools.Create
 0001:0002D444       TEnvironmentTools.ToolSelected
 0001:0002D49C       SetPropertyValue
 0001:0002D658       GetPropertyValue
 0001:0002D7F0       TOTAFormEditor.AddNotifier
 0001:0002D814       TOTAFormEditor.Create
 0001:0002D864       TOTAFormEditor.CreateComponent
 0001:0002D990       TOTAFormEditor.FindComponent
 0001:0002D9F0       TOTAFormEditor.FormModified
 0001:0002DA10       TOTAFormEditor.FormSaving
 0001:0002DA30       TOTAFormEditor.GetComponentFromHandle
 0001:0002DA7C       TOTAFormEditor.GetCreateParent
 0001:0002DAD8       TOTAFormEditor.GetFileName
 0001:0002DAF8       TOTAFormEditor.GetFormDesigner
 0001:0002DB34       TOTAFormEditor.GetFormResource
 0001:0002DB8C       TOTAFormEditor.GetModified
 0001:0002DBC0       TOTAFormEditor.GetModule
 0001:0002DBF8       TOTAFormEditor.GetRootComponent
 0001:0002DC3C       TOTAFormEditor.GetSelComponent
 0001:0002DCE4       TOTAFormEditor.GetSelCount
 0001:0002DD08       TOTAFormEditor.INTAFormEditor_GetFormResource
 0001:0002DD40       TOTAFormEditor.MarkModified
 0001:0002DD60       TOTAFormEditor.NotifyActivate
 0001:0002DD80       TOTAFormEditor.NotifyActivated
 0001:0002DE18       TOTAFormEditor.NotifyDestruct
 0001:0002DE38       TOTAFormEditor.NotifyFormModified
 0001:0002DED0       TOTAFormEditor.NotifyFormSaving
 0001:0002DF68       TOTAFormEditor.NotifyRenamed
 0001:0002E02C       TOTAFormEditor.RemoveNotifier
 0001:0002E050       TOTAFormEditor.Show
 0001:0002E0C4       TOTAComponent.Create
 0001:0002E11C       TOTAComponent.Destroy
 0001:0002E158       TOTAComponent.Delete
 0001:0002E1A8       TOTAComponent.Focus
 0001:0002E2B8       TOTAComponent.GetChildren
 0001:0002E360       TOTAComponent.GetChildProc
 0001:0002E3C4       TOTAComponent.GetComponent
 0001:0002E430       TOTAComponent.GetComponentCount
 0001:0002E46C       TOTAComponent.GetComponentHandle
 0001:0002E488       TOTAComponent.GetComponentType
 0001:0002E4BC       TOTAComponent.GetControl
 0001:0002E520       TOTAComponent.GetControlCount
 0001:0002E544       TOTAComponent.GetParent
 0001:0002E5BC       TOTAComponent.GetPropCount
 0001:0002E5E8       TOTAComponent.GetPropList
 0001:0002E638       TOTAComponent.GetPropName
 0001:0002E684       TOTAComponent.GetPropType
 0001:0002E6C8       TOTAComponent.GetPropTypeByName
 0001:0002E70C       TOTAComponent.GetPropValue
 0001:0002E768       TOTAComponent.GetPropValueByName
 0001:0002E7C0       TOTAComponent.INTAComponent_GetComponent
 0001:0002E7F8       TOTAComponent.INTAComponent_GetPersistent
 0001:0002E814       TOTAComponent.IsTControl
 0001:0002E838       TOTAComponent.Select
 0001:0002E8A0       TOTAComponent.SetProp
 0001:0002E8FC       TOTAComponent.SetPropByName
 0001:0002E954       TEvRootActivatedEvent.Add
 0001:0002E970       TEvRootActivatedEvent.IndexOf
 0001:0002E994       TEvRootActivatedEvent.Remove
 0001:0002E9B0       TEvRootActivatedEvent.Send
 0001:0002E9FC       RegisterEditors
 0001:0002EAC8       RegisterInitializeDesigner
 0001:0002EB0C       InitializeDesigners
 0001:0002EB58       Finalization
 0001:0002EBD4       ComponentDesigner
 0001:0002F2BC       SplitComponentName
 0001:0002F398       FindFormAndComponent
 0001:0002F4CC       TOTANotifier.Create
 0001:0002F51C       TOTANotifier.Destroyed
 0001:0002F534       TOTAModuleNotifier.CheckOverwrite
 0001:0002F548       TOTAModuleNotifier.Modified
 0001:0002F554       TOTAModuleNotifier.ModuleRenamed
 0001:0002F5F4       TOTAFormNotifier.ComponentRenamed
 0001:0002F61C       TOTAFormNotifier.FormActivated
 0001:0002F628       TOTAFormNotifier.FormSaving
 0001:0002F648       TActiveTStringsProperty.CreateNew
 0001:0002F6F0       TActiveTStringsProperty.Destroy
 0001:0002F768       TActiveTStringsProperty.Notification
 0001:0002F7B0       TActiveTStringsProperty.RenameComponent
 0001:0002F8E0       TActiveTStringsProperty.SetModule
 0001:0002F958       TActiveTStringsProperty.SetComponent
 0001:0002FAAC       TStringsStream.Create
 0001:0002FBE8       TStringsStream.Destroy
 0001:0002FC64       TStringsStream.Write
 0001:0002FC9C       TStringsStream.SetDesignerModified
 0001:0002FCF8       TStringsFileSystem.Create
 0001:0002FD4C       TStringsFileSystem.Destroy
 0001:0002FD88       TStringsFileSystem.GetTStringsProperty
 0001:0002FE7C       Error
 0001:0002FEB0       TStringsFileSystem.GetFileStream
 0001:0002FF5C       TStringsFileSystem.FileAge
 0001:0002FFAC       TStringsFileSystem.RenameFile
 0001:0002FFC8       TStringsFileSystem.IsReadonly
 0001:0002FFE0       TStringsFileSystem.IsFileBased
 0001:0002FFF4       TStringsFileSystem.DeleteFile
 0001:0003000C       TStringsFileSystem.FileExists
 0001:00030034       TStringsFileSystem.GetTempFileName
 0001:00030054       TStringsFileSystem.GetBackupFileName
 0001:00030074       TStringsFileSystem.GetIDString
 0001:000300B8       Register
 0001:00030180       Unregister
 0001:0003020C       Finalization
 0001:00030248       StFilSys
 0001:00030468       TStringsEditDlg.GetLinesControl
 0001:00030484       TStringsEditDlg.Memo1KeyDown
 0001:000304B8       TStringsEditDlg.UpdateStatus
 0001:000305A4       TStringsEditDlg.FormCreate
 0001:000305DC       TStringsEditDlg.GetLines
 0001:00030600       TStringsEditDlg.SetLines
 0001:00030628       Finalization
 0001:00030658       StringsEdit
 0001:00030894       TValueEditDlg.GetLinesControl
 0001:000308B0       TValueEditDlg.GetLines
 0001:000308D4       TValueEditDlg.SetLines
 0001:000308F8       TValueEditDlg.ValueListEditor1StringsChange
 0001:00030920       TValueEditDlg.ValueListEditor1KeyDown
 0001:00030954       Finalization
 0001:00030984       ValueEdit
 0001:00031038       TOTAFile.Create
 0001:0003109C       TOTAFile.GetAge
 0001:000310BC       TOTAFile.GetSource
 0001:000310DC       TStringsModuleCreator.Create
 0001:00031148       TStringsModuleCreator.Destroy
 0001:00031184       TStringsModuleCreator.FormCreated
 0001:00031194       TStringsModuleCreator.GetAncestorName
 0001:000311AC       TStringsModuleCreator.GetCreatorType
 0001:000311DC       TStringsModuleCreator.GetExisting
 0001:000311F0       TStringsModuleCreator.GetFileSystem
 0001:00031234       TStringsModuleCreator.GetFormName
 0001:0003124C       TStringsModuleCreator.GetImplFileName
 0001:0003126C       TStringsModuleCreator.GetIntfFileName
 0001:00031284       TStringsModuleCreator.GetMainForm
 0001:00031298       TStringsModuleCreator.GetOwner
 0001:000312B0       TStringsModuleCreator.GetShowForm
 0001:000312C4       TStringsModuleCreator.GetShowSource
 0001:000312D8       TStringsModuleCreator.GetUnnamed
 0001:000312EC       TStringsModuleCreator.NewFormFile
 0001:0003130C       TStringsModuleCreator.NewImplSource
 0001:00031350       TStringsModuleCreator.NewIntfSource
 0001:00031370       TStrEditDlg.FileOpen
 0001:000313E8       TStrEditDlg.FileSave
 0001:00031490       TStringListProperty.EditDialog
 0001:000314B8       TStringListProperty.GetAttributes
 0001:000314F0       TStringListProperty.GetStrings
 0001:0003150C       TStringListProperty.SetStrings
 0001:00031528       TStringListProperty.Edit
 0001:00031830       TStrEditDlg.HelpButtonClick
 0001:00031858       TStrEditDlg.CodeWndBtnClick
 0001:00031878       TValueListProperty.EditDialog
 0001:000318A0       Finalization
 0001:000318D0       StrEdit
 0001:000318D8       Finalization
 0001:00031908       DeskStrs
 0001:00031B7C       CheckUpdatesDisabled
 0001:00031C3C       UpdateDesktop
 0001:00031D04       BeginDesktopUpdate
 0001:00031D14       EndDesktopUpdate
 0001:00031D34       IsDesktopLocked
 0001:00031D40       TDesktopForm.Create
 0001:00031D88       TDesktopForm.EditAction
 0001:00031DE8       TDesktopForm.GetEditState
 0001:00031E4C       TDesktopForm.SaveWindowState
 0001:000320AC       TDesktopForm.LoadWindowState
 0001:00032470       TDesktopForm.FormCreate
 0001:000324D8       TDesktopForm.FormDestroy
 0001:00032580       TDesktopForm.LoadDockStream
 0001:00032674       TDesktopForm.SaveDockStream
 0001:000327B8       TDesktopForm.LoadDockClients
 0001:00032938       TDesktopForm.SaveDockClients
 0001:000329FC       TDesktopForm.MainFormMadeVisible
 0001:00032A08       TDesktopForm.DoMainFormShown
 0001:00032A0C       TDesktopForm.LockUpdates
 0001:00032A74       TDesktopForm.UnlockUpdates
 0001:00032BE4       TDesktopForm.CMShowingChanged
 0001:00032BF4       TDesktopForm.ZoomWindow
 0001:00032C24       TDesktopForm.Repaint
 0001:00032C34       Finalization
 0001:00032C64       DeskForm
 0001:00032C74       InitGlobals
 0001:00032CB8       Finalization
 0001:00032CE8       IDEMessages
 0001:00033264       TDockPanel.Create
 0001:000332E8       TDockPanel.CreateParams
 0001:000332F8       TDockPanel.GetFloatingDockSiteClass
 0001:00033300       TDockPanel.CMFloat
 0001:00033308       TDockPanel.WMGetText
 0001:00033334       TDockPanel.WMGetTextLength
 0001:0003334C       TDockPanel.WMSetText
 0001:00033370       TDockPanel.DockTrackNoTarget
 0001:000333A8       TDockPanel.DrawDragDockImage
 0001:00033410       TDockPanel.EraseDragDockImage
 0001:00033414       TDockPanel.WMNCHitTest
 0001:0003341C       TDockPanel.Dock
 0001:0003345C       TEditorDockPanel.AdjustPosition
 0001:00033548       TEditorDockPanel.CMDockNotification
 0001:00033610       TEditorDockPanel.CMUnDockClient
 0001:00033678       TEditorDockPanel.DockDrop
 0001:000336F4       TEditorDockPanel.DockOver
 0001:000337B4       TEditorDockPanel.DoUnDock
 0001:00033814       TEditorDockPanel.Notification
 0001:00033854       TEditorDockPanel.ReloadDockedControl
 0001:00033884       TEditorDockPanel.SetNextControl
 0001:00033918       TEditorDockPanel.SetResizeSuspended
 0001:00033938       TEditorDockPanel.SetSplitter
 0001:000339CC       TEditorDockPanel.VisibleClientCount
 0001:00033A34       Finalization
 0001:00033A64       IDEDockPanel
 0001:00033C00       TTabDockPageControl.Create
 0001:00033C60       TTabDockPageControl.CMDockClient
 0001:00033CFC       TTabDockPageControl.CMDockNotification
 0001:00033D50       TTabDockPageControl.DoAddDockClient
 0001:00033D7C       TTabDockPageControl.DoRemoveDockClient
 0001:00033E28       TTabDockPageControl.GetSiteInfo
 0001:00033E80       TTabDockPageControl.ShowDockClient
 0001:00033EC8       TTabDockPageControl.DockOver
 0001:00033F14       TTabDockPageControl.Change
 0001:00033F9C       Finalization
 0001:00033FCC       IDEDockCtrls
 0001:000341AC       TJoinDockForm.Create
 0001:000341F0       TJoinDockForm.FormUnDock
 0001:0003425C       TJoinDockForm.LoadWindowState
 0001:000342D8       TJoinDockForm.ReloadDockedControl
 0001:000342F0       TJoinDockForm.SaveWindowState
 0001:00034364       TJoinDockForm.CMDockNotification
 0001:000343DC       TJoinDockForm.GetDialogCharParentClass
 0001:000343E4       TJoinDockForm.UnlockUpdates
 0001:00034400       Finalization
 0001:00034430       JoinDock
 0001:00034510       TDesktopProcs.Create
 0001:00034554       TDesktopProcs.Destroy
 0001:0003458C       TDesktopProcs.Add
 0001:00034610       TDesktopProcs.DoLoad
 0001:00034644       TDesktopProcs.DoSave
 0001:0003468C       TDesktopProcs.Find
 0001:000346C4       TDesktopProcs.Remove
 0001:000346E8       TDesktopFormClassItem.Create
 0001:0003474C       TDesktopFormClassItem.Destroy
 0001:00034780       TDesktopFormClassItem.LoadWindow
 0001:00034814       TDesktopFormClassItem.SaveWindow
 0001:0003484C       ShowDockableForm
 0001:000348F4       FocusWindow
 0001:00034924       RegisterDesktopFormClass
 0001:0003495C       RegisterDesktopProcs
 0001:00034990       UnregisterDesktopProcs
 0001:000349A8       LoadDesktopFormClasses
 0001:000349D8       SaveDesktopFormClasses
 0001:00034A10       DoDesktopLoadProcs
 0001:00034A28       DoDesktopSaveProcs
 0001:00034A40       DoneDeskUtil
 0001:00034A88       Finalization
 0001:00034AC0       DeskUtil
 0001:00034DBC       PumpDockingMessages
 0001:00034E1C       TDockableForm.Create
 0001:00034E58       TDockableForm.CreateParams
 0001:00034E78       TDockableForm.CreateDockParent
 0001:00034F88       TDockableForm.CMDockClient
 0001:00034FA8       TDockableForm.GetTabDockRect
 0001:00035014       TDockableForm.DockOver
 0001:00035174       TDockableForm.FormCreate
 0001:000351E0       TDockableForm.ForceShow
 0001:000351F8       TDockableForm.FormGetSiteInfo
 0001:0003528C       TDockableForm.ToggleDockable
 0001:000352AC       TDockableForm.SetDockable
 0001:00035310       TDockableForm.SaveWindowState
 0001:000353C0       TDockableForm.LoadWindowState
 0001:00035470       TDockableForm.DockableCmdExecute
 0001:00035484       TDockableForm.DockableCmdUpdate
 0001:000354A8       TDockableForm.StayOnTopCmdExecute
 0001:00035534       TDockableForm.StayOnTopCmdUpdate
 0001:0003555C       TDockableForm.WMMouseActivate
 0001:000355B8       TDockableForm.ZoomWindowCmdExecute
 0001:000355C4       Finalization
 0001:00035610       DockForm
 0001:00035818       DestroyDockHosts
 0001:000358E4       TBaseDockHostForm.Create
 0001:00035920       TBaseDockHostForm.Destroy
 0001:00035978       TBaseDockHostForm.CMDialogChar
 0001:000359C8       TBaseDockHostForm.CreateDockParent
 0001:000359CC       TBaseDockHostForm.DoUnDock
 0001:00035A20       TBaseDockHostForm.UMFinalUndock
 0001:00035B50       TBaseDockHostForm.FormClose
 0001:00035B78       TBaseDockHostForm.ManualDockClient
 0001:00035BA0       TBaseDockHostForm.ResetCaption
 0001:00035C70       TBaseDockHostForm.DoAddDockClient
 0001:00035C8C       TBaseDockHostForm.DoRemoveDockClient
 0001:00035CB0       TBaseDockHostForm.SetDockable
 0001:00035CB4       TBaseDockHostForm.GetDockSiteControl
 0001:00035CB8       TBaseDockHostForm.ResetStayOnTop
 0001:00035D78       TBaseDockHostForm.GetVisibleClientCount
 0001:00035DB4       TBaseDockHostForm.UMNewClientFocused
 0001:00035E08       TBaseDockHostForm.WMActivate
 0001:00035EB0       Finalization
 0001:00035EEC       BaseDock
 0001:00036160       TTabDockHostForm.CMDialogChar
 0001:00036184       TTabDockHostForm.Create
 0001:000361CC       TTabDockHostForm.FormCreate
 0001:00036220       TTabDockHostForm.GetDialogCharParentClass
 0001:00036228       TTabDockHostForm.GetDockSiteControl
 0001:00036230       TTabDockHostForm.LoadWindowState
 0001:000364F8       TTabDockHostForm.ManualDockClient
 0001:0003652C       TTabDockHostForm.SaveWindowState
 0001:000366A8       TTabDockHostForm.Top1Click
 0001:000366D8       Finalization
 0001:00036708       TabDock
 0001:00036F80       TCustomPopupAction.SetDropdownMenu
 0001:00036FE4       TCustomPopupAction.SetEnableDropdown
 0001:00037048       TCustomPopupAction.SetPopupMenu
 0001:000370AC       TPopupActionLink.IsDropdownMenuLinked
 0001:000370C0       TPopupActionLink.IsEnableDropdownLinked
 0001:000370D4       TPopupActionLink.IsPopupMenuLinked
 0001:000370E8       TPopupActionLink.SetDropdownMenu
 0001:000370EC       TPopupActionLink.SetEnableDropdown
 0001:000370F0       TPopupActionLink.SetPopupMenu
 0001:000370F4       TCustomSubMenuAction.PopulateSubMenu
 0001:00037114       Finalization
 0001:00037144       IDEMenuAction
 0001:00037618       TCmdButtonActionLink.AssignClient
 0001:0003763C       TCmdButtonActionLink.IsCheckedLinked
 0001:00037670       TCmdButtonActionLink.IsDropdownMenuLinked
 0001:000376A8       TCmdButtonActionLink.IsEnabledLinked
 0001:000376E0       TCmdButtonActionLink.IsEnableDropdownLinked
 0001:00037718       TCmdButtonActionLink.IsImageIndexLinked
 0001:00037750       TCmdButtonActionLink.IsPopupMenuLinked
 0001:00037784       TCmdButtonActionLink.SetChecked
 0001:000377A4       TCmdButtonActionLink.SetDropdownMenu
 0001:000377C4       TCmdButtonActionLink.SetEnabled
 0001:000377E4       TCmdButtonActionLink.SetEnableDropdown
 0001:00037808       TCmdButtonActionLink.SetImageIndex
 0001:00037828       TCmdButtonActionLink.SetPopupMenu
 0001:0003784C       TCommandButton.Create
 0001:0003792C       TCommandButton.Destroy
 0001:00037974       TCommandButton.ActionChange
 0001:00037AEC       TCommandButton.UpdateImage
 0001:00037AF4       TCommandButton.ImageListChange
 0001:00037B14       TCommandButton.Notification
 0001:00037B7C       TCommandButton.SetImageIndex
 0001:00037B90       TCommandButton.SetDisabledImages
 0001:00037BCC       TCommandButton.SetDropdownMenu
 0001:00037BF4       TCommandButton.SetEnabled
 0001:00037C28       TCommandButton.SetEnableDropDown
 0001:00037C38       TCommandButton.SetHotImages
 0001:00037C74       TCommandButton.SetImages
 0001:00037CB0       TCommandButton.SetShowCaption
 0001:00037CCC       TCommandButton.CheckMenuDropdown
 0001:00037D3C       TCommandButton.DrawButtonGlyph
 0001:00037DCC       TCommandButton.DrawButtonText
 0001:00037E98       TCommandButton.CalcButtonLayout
 0001:00038194       TCommandButton.Draw
 0001:00038208       TCommandButton.GetActionLinkClass
 0001:00038210       TCommandButton.Paint
 0001:000385A0       TCommandButton.WMLButtonDblClk
 0001:000385D4       TCommandButton.WMLButtonDown
 0001:000386E4       TCommandButton.WMLButtonUp
 0001:00038718       TCommandButton.IsImageIndexStored
 0001:00038738       TCommandButton.CanAutoSize
 0001:0003880C       TCommandButton.CMDialogChar
 0001:0003881C       TCommandButton.UpdateTracking
 0001:00038884       TCommandButton.Click
 0001:00038894       Finalization
 0001:000388C4       IDECommandButton
 0001:00038BC4       TToolbarForm.FormCreate
 0001:00038C98       TToolbarForm.GetLargeButtons
 0001:00038CA8       TToolbarForm.SetLargeButtons
 0001:00038CB4       TToolbarForm.SaveWindowState
 0001:00038D38       TToolbarForm.LoadWindowState
 0001:00038DE8       TToolbarForm.Splitter1CanResize
 0001:00038E24       TToolbarForm.Splitter1Moved
 0001:00038E3C       TToolbarForm.ResizeButtons
 0001:00039050       TToolbarForm.ToolbarCmdExecute
 0001:0003909C       TToolbarForm.TextLabelsCmdExecute
 0001:000390B0       TToolbarForm.ToolbarCmdUpdate
 0001:000390D4       TToolbarForm.TextLabelsCmdUpdate
 0001:000390F8       Finalization
 0001:00039128       ToolForm
 0001:00039464       TDockableToolbarForm.FormCreate
 0001:000395BC       TDockableToolbarForm.GetLargeButtons
 0001:000395CC       TDockableToolbarForm.SetLargeButtons
 0001:00039668       TDockableToolbarForm.Splitter1CanResize
 0001:000396A4       TDockableToolbarForm.Splitter1Moved
 0001:0003974C       TDockableToolbarForm.ResizeButtons
 0001:00039960       TDockableToolbarForm.ToolbarCmdExecute
 0001:00039A34       TDockableToolbarForm.TextLabelsCmdExecute
 0001:00039A48       TDockableToolbarForm.ToolbarCmdUpdate
 0001:00039A6C       TDockableToolbarForm.TextLabelsCmdUpdate
 0001:00039A90       TDockableToolbarForm.FormDestroy
 0001:00039A98       Finalization
 0001:00039AC8       DockToolForm
 0001:00039AD0       Finalization
 0001:00039B00       LibHelp
 0001:0003A0BC       TPictureEditorDlg.FormCreate
 0001:0003A0EC       TPictureEditorDlg.FormDestroy
 0001:0003A0F8       TPictureEditorDlg.LoadClick
 0001:0003A1CC       TPictureEditorDlg.SaveClick
 0001:0003A2A4       TPictureEditorDlg.ImagePaintBoxPaint
 0001:0003A47C       TPictureEditorDlg.ClearClick
 0001:0003A4B4       TPictureEditor.Create
 0001:0003A514       TPictureEditor.Destroy
 0001:0003A544       TPictureEditor.Execute
 0001:0003A6A0       TPictureEditor.SetPicture
 0001:0003A6B0       TPictureProperty.Edit
 0001:0003A724       TPictureProperty.GetAttributes
 0001:0003A730       TPictureProperty.GetValue
 0001:0003A7E4       TPictureProperty.SetValue
 0001:0003A7FC       TGraphicProperty.Edit
 0001:0003A8BC       TGraphicProperty.GetAttributes
 0001:0003A8C8       TGraphicProperty.GetValue
 0001:0003A980       TGraphicProperty.SetValue
 0001:0003A998       TGraphicEditor.EditProperty
 0001:0003AA2C       TPictureEditorDlg.HelpButtonClick
 0001:0003AA44       Finalization
 0001:0003AA74       PicEdit
 0001:0003ABB8       Finalization
 0001:0003ABE8       DsnCmds
 0001:0003B0C4       TCustomEditorViewInfo.Create
 0001:0003B130       TCustomEditorViewInfo.GetHasViewClass
 0001:0003B164       TCustomEditorViewInfo.GetViewClass
 0001:0003B1F4       TCustomEditorViewList.Add
 0001:0003B224       TCustomEditorViewList.Add
 0001:0003B25C       TCustomEditorViewList.Count
 0001:0003B278       TCustomEditorViewList.Create
 0001:0003B2CC       TCustomEditorViewList.Destroy
 0001:0003B308       TCustomEditorViewList.FreeEditorGroup
 0001:0003B358       TCustomEditorViewList.GetCustomEditorView
 0001:0003B384       TCustomEditorViewList.GetFileCustomEditorView
 0001:0003B408       TCustomEditorViewList.GetViewClass
 0001:0003B434       TCustomEditorViewList.Remove
 0001:0003B488       TCustomEditorViewList.Remove
 0001:0003B4B0       RegisterEditorView
 0001:0003B564       UnregisterEditorView
 0001:0003B584       RegisteredEditorViews
 0001:0003B5B0       ContextToRootComponent
 0001:0003B628       ContextToDesigner
 0001:0003B6F4       ContextToFormEditor
 0001:0003B7CC       ContextToFilename
 0001:0003B858       ContextToModule
 0001:0003B8A0       ContextResurrect
 0001:0003B91C       TCustomEditorView.GetCaption
 0001:0003B934       TCustomEditorView.Display
 0001:0003B948       TCustomEditorView.EditAction
 0001:0003B964       TCustomEditorView.GetEditState
 0001:0003B98C       TCustomEditorView.GetStyle
 0001:0003B9A8       TCustomEditorView.Handles
 0001:0003B9C0       TCustomEditorView.GetPriority
 0001:0003B9D8       Finalization
 0001:0003BA14       EditorViewSupport
 0001:0003BAE4       Finalization
 0001:0003BB14       FileIntf
 0001:0003C268       Finalization
 0001:0003C298       ToolIntf
 0001:0003C3E8       RegisterLibraryExpert
 0001:0003C404       Finalization
 0001:0003C434       ExptIntf
 0001:0003C6AC       TPropertyFilter.Create
 0001:0003C718       TPropertyFilter.Destroy
 0001:0003C748       MatchName
 0001:0003C778       MatchClass
 0001:0003C7B4       MatchType
 0001:0003C81C       TPropertyFilter.Match
 0001:0003C8B8       TPropertyCategory.Add
 0001:0003C8CC       TPropertyCategory.ClearMatches
 0001:0003C8D4       TPropertyCategory.Count
 0001:0003C8DC       TPropertyCategory.Create
 0001:0003C940       TPropertyCategory.Destroy
 0001:0003C970       TPropertyCategory.FreeEditorGroup
 0001:0003C9A8       TPropertyCategory.GetFilter
 0001:0003C9BC       TPropertyCategory.Match
 0001:0003CA44       TPropertyCategoryList.ChangeVisibility
 0001:0003CA64       ChangeIfNot
 0001:0003CA78       ListedCategory
 0001:0003CAC4       TPropertyCategoryList.ChangeVisibility
 0001:0003CBC8       TPropertyCategoryList.ClearMatches
 0001:0003CBF4       TPropertyCategoryList.Count
 0001:0003CBFC       TPropertyCategoryList.Create
 0001:0003CC40       TPropertyCategoryList.Destroy
 0001:0003CC70       TPropertyCategoryList.FindCategory
 0001:0003CCB4       TPropertyCategoryList.FreeEditorGroup
 0001:0003CD18       TPropertyCategoryList.GetCategory
 0001:0003CD2C       TPropertyCategoryList.GetHiddenCategories
 0001:0003CDC0       TPropertyCategoryList.IndexOf
 0001:0003CE08       TPropertyCategoryList.Match
 0001:0003CF04       TPropertyCategoryList.MiscCategory
 0001:0003CF60       TPropertyCategoryList.SetHiddenCategories
 0001:0003CFF0       IsPropertyInCategory
 0001:0003D014       IsPropertyInCategory
 0001:0003D044       PropertyCategoryList
 0001:0003D088       RegisterPropertyInCategory
 0001:0003D0C0       FreeCategoryGroup
 0001:0003D0D8       Finalization
 0001:0003D128       PropertyCategories
 0001:0003D45C       TDesignSurface.AddListener
 0001:0003D470       TDesignSurface.AlignToGrid
 0001:0003D47C       TDesignSurface.AppAlignDialog
 0001:0003D488       TDesignSurface.AppCreationOrderDialog
 0001:0003D494       TDesignSurface.AppFlipChildrenAll
 0001:0003D4A0       TDesignSurface.AppFlipChildrenSelected
 0001:0003D4AC       TDesignSurface.AppSaveTemplateDialog
 0001:0003D4B8       TDesignSurface.AppScaleDialog
 0001:0003D4C4       TDesignSurface.AppSizeDialog
 0001:0003D4D0       TDesignSurface.AppTabOrderDialog
 0001:0003D4DC       TDesignSurface.AppTextDFM
 0001:0003D4E8       TDesignSurface.AppViewAsText
 0001:0003D4F4       TDesignSurface.Close
 0001:0003D504       TDesignSurface.CreateItem
 0001:0003D538       TDesignSurface.DeleteSelection
 0001:0003D544       TDesignSurface.Destroy
 0001:0003D598       TDesignSurface.DestroyItem
 0001:0003D5A0       TDesignSurface.GetDesignRoot
 0001:0003D5A4       TDesignSurface.GetGrabHandles
 0001:0003D5B8       TDesignSurface.GetIsControl
 0001:0003D5BC       TDesignSurface.GetItems
 0001:0003D5E0       TDesignSurface.GetItemsCount
 0001:0003D5EC       TDesignSurface.GetRoot
 0001:0003D600       TDesignSurface.GridSnapDisabled
 0001:0003D604       TDesignSurface.InstanceInserted
 0001:0003D610       TDesignSurface.InstanceRemoved
 0001:0003D61C       TDesignSurface.Modified
 0001:0003D628       TDesignSurface.RemoveListener
 0001:0003D638       TDesignSurface.RevertComponent
 0001:0003D644       TDesignSurface.SelectionVerb
 0001:0003D648       TDesignSurface.SetIsControl
 0001:0003D64C       TDesignSurface.UniqueName
 0001:0003D668       TDesignSurface.ValidateModification
 0001:0003D674       TDesignSurface.SetInitializing
 0001:0003D678       Finalization
 0001:0003D6A8       Surface
 0001:0003E650       RegActions
 0001:0003E8D4       UnRegActions
 0001:0003E8E4       UnregisterActionGroup
 0001:0003E984       EnumActions
 0001:0003EA64       FindComponentByClass
 0001:0003EB1C       CreateMaskedBmp
 0001:0003EC40       CreateAction
 0001:0003EE80       GetDisplayValue
 0001:0003EEB8       DefaultPropertyDrawName
 0001:0003EF28       DefaultPropertyDrawValue
 0001:0003EF98       DefaultPropertyListDrawValue
 0001:0003EFCC       TFontNameProperty.GetAttributes
 0001:0003EFEC       TFontNameProperty.GetValues
 0001:0003F078       TFontNameProperty.ListDrawValue
 0001:0003F128       TFontNameProperty.ListMeasureHeight
 0001:0003F1B8       TFontNameProperty.ListMeasureWidth
 0001:0003F248       TFontCharsetProperty.GetAttributes
 0001:0003F268       TFontCharsetProperty.GetValue
 0001:0003F2C0       TFontCharsetProperty.GetValues
 0001:0003F2D8       TFontCharsetProperty.SetValue
 0001:0003F310       TImeNameProperty.GetAttributes
 0001:0003F330       TImeNameProperty.GetValues
 0001:0003F3BC       TMPFilenameProperty.Edit
 0001:0003F4B4       TMPFilenameProperty.GetAttributes
 0001:0003F4D4       GetCustomColors
 0001:0003F574       SaveCustomColors
 0001:0003F67C       TColorProperty.Edit
 0001:0003F728       TColorProperty.GetAttributes
 0001:0003F748       TColorProperty.GetValue
 0001:0003F768       TColorProperty.GetValues
 0001:0003F780       TColorProperty.PropDrawValue
 0001:0003F810       ColorToBorderColor
 0001:0003F854       TColorProperty.ListDrawValue
 0001:0003F978       TColorProperty.ListMeasureWidth
 0001:0003F9AC       TColorProperty.SetValue
 0001:0003F9E4       TColorProperty.ListMeasureHeight
 0001:0003F9FC       TColorProperty.PropDrawName
 0001:0003FA20       TBrushStyleProperty.PropDrawValue
 0001:0003FAB4       TBrushStyleProperty.ListDrawValue
 0001:0003FC3C       TBrushStyleProperty.ListMeasureWidth
 0001:0003FC70       TBrushStyleProperty.ListMeasureHeight
 0001:0003FC88       TBrushStyleProperty.PropDrawName
 0001:0003FCAC       TPenStyleProperty.PropDrawValue
 0001:0003FD40       TPenStyleProperty.ListDrawValue
 0001:0003FEF8       TPenStyleProperty.ListMeasureWidth
 0001:0003FF30       TPenStyleProperty.ListMeasureHeight
 0001:0003FF48       TPenStyleProperty.PropDrawName
 0001:0003FF6C       TCursorProperty.GetAttributes
 0001:0003FF8C       TCursorProperty.GetValue
 0001:0003FFAC       TCursorProperty.GetValues
 0001:0003FFC4       TCursorProperty.SetValue
 0001:0003FFFC       TCursorProperty.ListDrawValue
 0001:000400C0       TCursorProperty.ListMeasureWidth
 0001:000400EC       TCursorProperty.ListMeasureHeight
 0001:00040134       TFontProperty.Edit
 0001:000401D4       TFontProperty.GetAttributes
 0001:000402B4       TModalResultProperty.GetAttributes
 0001:000402D4       TModalResultProperty.GetValue
 0001:00040318       TModalResultProperty.GetValues
 0001:00040348       TModalResultProperty.SetValue
 0001:000403A8       TShortCutProperty.GetAttributes
 0001:000403C8       TShortCutProperty.GetValue
 0001:00040408       TShortCutProperty.GetValues
 0001:00040494       TShortCutProperty.SetValue
 0001:00040534       TTabOrderProperty.GetAttributes
 0001:00040554       TCaptionProperty.GetAttributes
 0001:00040574       CopyToClipboard
 0001:000405D8       CopyStreamToClipboard
 0001:000406CC       AnotherObject
 0001:00040770       GetClipboardStream
 0001:00040A04       TSelectionMessageList.Add
 0001:00040A58       TSelectionMessageList.Create
 0001:00040ABC       TSelectionMessageList.Get
 0001:00040B34       TSelectionMessageList.GetCount
 0001:00040B54       SelectionMessageListOf
 0001:00040C28       EditActionFor
 0001:00040CAC       GetEditStateFor
 0001:00040D70       Finalization
 0001:00040DDC       VCLEditors
 0001:00041334       TComponentContainer.WMHScroll
 0001:0004138C       TComponentContainer.WMVScroll
 0001:000413E4       TComponentContainer.CreateParams
 0001:00041408       TDataModuleForm.Create
 0001:0004156C       TDataModuleForm.Destroy
 0001:000415B0       TDataModuleForm.UpdateDesigner
 0001:00041724       TDataModuleForm.FormResize
 0001:000417EC       TDataModuleForm.WMMove
 0001:00041808       TDataModuleForm.DesignerClosed
 0001:00041838       TDataModuleForm.DesignerOpened
 0001:00041864       TDataModuleForm.ItemDeleted
 0001:00041878       TDataModuleForm.ItemInserted
 0001:0004188C       TDataModuleForm.ItemsModified
 0001:000418B4       TDataModuleForm.SelectionChanged
 0001:000418C8       TDataModuleCustomModule.ValidateComponentClass
 0001:00041918       TDataModuleCustomModule.CreateDesignerForm
 0001:00041958       TDataModuleCustomModule.DesignClass
 0001:00041970       TDataModuleForm.GetContainer
 0001:0004198C       TDataModuleForm.GetRoot
 0001:000419A8       Finalization
 0001:000419D8       DMForm
 0001:00041DE8       TDesignWindow.Create
 0001:00041ED8       TDesignWindow.Destroy
 0001:00041F1C       TDesignWindow.Activated
 0001:00041F28       TDesignWindow.WMActivate
 0001:00041F74       TDesignWindow.ActivateInspector
 0001:00041FA8       TDesignWindow.ClipboardComponents
 0001:00042060       TDesignWindow.CopyComponents
 0001:00042148       TDesignWindow.GetEditState
 0001:00042168       TDesignWindow.EditAction
 0001:00042180       TDesignWindow.WindowHide
 0001:000421A4       TDesignWindow.WindowShow
 0001:000421D8       TDesignWindow.ComponentRead
 0001:000421FC       TDesignWindow.ReaderSetName
 0001:00042288       TDesignWindow.PasteComponents
 0001:00042358       TDesignWindow.SelectionChanged
 0001:0004236C       TDesignWindow.SetSelection
 0001:000423A8       TDesignWindow.ItemDeleted
 0001:000423BC       TDesignWindow.ItemInserted
 0001:000423D0       TDesignWindow.DesignerClosed
 0001:000423E4       TDesignWindow.DesignerOpened
 0001:000423F8       TDesignWindow.ItemsModified
 0001:00042408       TDesignWindow.UniqueName
 0001:00042488       Finalization
 0001:000424B8       DesignWindows
 0001:000427D0       TToolbarDesignWindow.FormCreate
 0001:00042808       TToolbarDesignWindow.GetLargeButtons
 0001:0004282C       TToolbarDesignWindow.SetLargeButtons
 0001:0004284C       TToolbarDesignWindow.Splitter1CanResize
 0001:000428B0       TToolbarDesignWindow.Splitter1Moved
 0001:000428DC       TToolbarDesignWindow.ResizeButtons
 0001:00042A18       TToolbarDesignWindow.ToolbarCmdExecute
 0001:00042A8C       TToolbarDesignWindow.TextLabelsCmdExecute
 0001:00042ABC       TToolbarDesignWindow.ToolbarCmdUpdate
 0001:00042AEC       TToolbarDesignWindow.TextLabelsCmdUpdate
 0001:00042B1C       Finalization
 0001:00042B4C       ToolWnds
 0001:000430B4       ShowCollectionEditorClass
 0001:00043254       ShowCollectionEditor
 0001:000432C0       TCollectionProperty.Edit
 0001:00043370       TCollectionProperty.GetAttributes
 0001:00043390       TCollectionProperty.GetEditorClass
 0001:000433A8       TCollectionProperty.GetColOptions
 0001:000433C4       TCollectionEditor.Activated
 0001:000433E4       TCollectionEditor.SetColOptions
 0001:00043418       IsOwnedBy
 0001:00043474       TCollectionEditor.ItemDeleted
 0001:00043528       TCollectionEditor.DesignerClosed
 0001:00043554       TCollectionEditor.CloseEditor
 0001:00043588       TCollectionEditor.ItemsModified
 0001:00043620       TCollectionEditor.GetItemName
 0001:000436F0       TCollectionEditor.GetRegKey
 0001:000437C0       TCollectionEditor.GetSelection
 0001:000439BC       TCollectionEditor.LockState
 0001:000439D0       TCollectionEditor.SelectionChanged
 0001:000439E4       TCollectionEditor.SetCollectionPropertyName
 0001:00043AA8       TCollectionEditor.SetSelection
 0001:00043C2C       TCollectionEditor.UnlockState
 0001:00043C40       UpdateSizes
 0001:00043EF4       UpdateColumns
 0001:000440B8       FetchItems
 0001:000441D8       ItemsEqual
 0001:00044304       TCollectionEditor.UpdateListbox
 0001:0004453C       TCollectionEditor.AddClick
 0001:00044654       TCollectionEditor.DeleteClick
 0001:00044828       TCollectionEditor.ListView1Click
 0001:00044838       TCollectionEditor.FormKeyPress
 0001:000448B0       TCollectionEditor.FormClose
 0001:00044AD4       TCollectionEditor.MoveUpClick
 0001:00044C24       TCollectionEditor.MoveDownClick
 0001:00044D94       TCollectionEditor.ListView1DragOver
 0001:00044DF0       TCollectionEditor.ListView1DragDrop
 0001:00044F8C       TCollectionEditor.FormCreate
 0001:00044FC0       TCollectionEditor.FormDestroy
 0001:00044FF4       TCollectionEditor.FormResize
 0001:00045004       TCollectionEditor.ListView1Change
 0001:00045064       TCollectionEditor.AMDeferUpdate
 0001:000450C4       TCollectionEditor.SelectAll1Click
 0001:000450E0       TCollectionEditor.SelectionUpdate
 0001:0004516C       TCollectionEditor.SelectAllCommandUpdate
 0001:000451AC       TCollectionEditor.SelectAll
 0001:00045274       TCollectionEditor.SelectNone
 0001:0004533C       TCollectionEditor.ListView1KeyPress
 0001:000453C0       TCollectionEditor.CanAdd
 0001:000453D8       Finalization
 0001:0004541C       ColnEdit
 0001:00045BEC       IMainMenuFor
 0001:00045C14       IPopupMenuFor
 0001:00045C3C       IMenuItemFor
 0001:00045C64       IMenuItemsFor
 0001:00045C8C       TMenuItemsWrapper.AddItem
 0001:00045CB4       TMenuItemsWrapper.AddItem
 0001:00045CF0       TMenuItemsWrapper.AddLine
 0001:00045D0C       TMenuItemsWrapper.Clear
 0001:00045D18       TMenuItemsWrapper.Count
 0001:00045D24       TMenuItemsWrapper.Create
 0001:00045D60       TMenuItemsWrapper.Find
 0001:00045DCC       TMenuItemsWrapper.FindByName
 0001:00045E10       TMenuItemsWrapper.GetComponent
 0001:00045E14       TMenuItemsWrapper.GetItem
 0001:00045E34       TMenuItemsWrapper.InsertItem
 0001:00045E58       TMenuItemsWrapper.InsertItem
 0001:00045EA4       TMenuItemsWrapper.InsertItem
 0001:00045EE0       TMenuItemsWrapper.InsertItem
 0001:00045FA0       TMenuItemsWrapper.InsertItem
 0001:00045FE4       TMenuItemsWrapper.InsertLine
 0001:00046000       TMenuItemsWrapper.InsertLine
 0001:00046048       TMenuItemsWrapper.SameAs
 0001:000460CC       TMenuItemWrapper.GetCaption
 0001:000460E4       TMenuItemWrapper.GetChecked
 0001:000460EC       TMenuItemWrapper.GetEnabled
 0001:000460F4       TMenuItemWrapper.GetGroupIndex
 0001:000460FC       TMenuItemWrapper.GetHelpContext
 0001:00046104       TMenuItemWrapper.GetHint
 0001:0004611C       TMenuItemWrapper.GetRadioItem
 0001:00046124       TMenuItemWrapper.GetShortCut
 0001:0004612C       TMenuItemWrapper.GetTag
 0001:00046134       TMenuItemWrapper.GetVisible
 0001:0004613C       TMenuItemWrapper.HasParent
 0001:0004614C       TMenuItemWrapper.IsLine
 0001:00046158       TMenuItemWrapper.MenuIndex
 0001:00046164       TMenuItemWrapper.Name
 0001:0004617C       TMenuItemWrapper.Parent
 0001:000461A8       TMenuItemWrapper.SetCaption
 0001:000461F8       TMenuItemWrapper.SetChecked
 0001:00046204       TMenuItemWrapper.SetEnabled
 0001:00046210       TMenuItemWrapper.SetGroupIndex
 0001:0004621C       TMenuItemWrapper.SetHelpContext
 0001:00046224       TMenuItemWrapper.SetHint
 0001:0004623C       TMenuItemWrapper.SetRadioItem
 0001:00046248       TMenuItemWrapper.SetShortCut
 0001:00046254       TMenuItemWrapper.SetTag
 0001:0004625C       TMenuItemWrapper.SetVisible
 0001:00046268       TMenuWrapper.Create
 0001:000462A4       TMenuWrapper.GetComponent
 0001:000462A8       TMenuWrapper.Items
 0001:000462C0       TMainMenuWrapper.Create
 0001:000462F8       TPopupMenuWrapper.Create
 0001:00046330       TPopupMenuWrapper.Popup
 0001:00046340       TPopupMenuWrapper.PopupComponent
 0001:00046348       Finalization
 0001:00046378       VCLMenus
 0001:00046BEC       TControlSprig.Create
 0001:00046C30       TControlSprig.DragDropTo
 0001:00046C68       TControlSprig.DragOverTo
 0001:00046CA0       TControlSprig.PaletteOverTo
 0001:00046CD8       WinControlDragDrop
 0001:00046D6C       WinControlDragOver
 0001:00046DA8       WinControlPaletteOver
 0001:00046DF8       TWinControlSprig.Create
 0001:00046E4C       TWinControlSprig.DragDrop
 0001:00046E80       TWinControlSprig.DragOver
 0001:00046EB4       TWinControlSprig.PaletteOver
 0001:00046EBC       TWinControlRootSprig.Create
 0001:00046F10       TWinControlRootSprig.DragDrop
 0001:00046F68       TWinControlRootSprig.DragOver
 0001:00046F90       TWinControlRootSprig.PaletteOver
 0001:00046FC4       TCustomFormRootSprig.Create
 0001:00047008       TDataModuleRootSprig.AcceptsClass
 0001:00047038       TDataModuleRootSprig.Create
 0001:0004707C       TDataModuleRootSprig.DragOver
 0001:000470BC       TDataModuleRootSprig.PaletteOver
 0001:000470EC       TFrameSprig.Create
 0001:00047134       TFrameSprig.FigureChildren
 0001:000471AC       Finalization
 0001:000471DC       VCLSprigs
 0001:00048858       ItemFor
 0001:0004890C       DrawMarker
 0001:0004894C       DrawSelection
 0001:00048998       NewActionItem
 0001:00048A48       TMarkedItem.GetMarked
 0001:00048A4C       TMarkedItem.SetMarked
 0001:00048A5C       TControlItem.Create
 0001:00048AA4       TControlItem.GetBoundsRect
 0001:00048AB8       TControlItem.GetControl
 0001:00048ABC       TControlItem.GetParent
 0001:00048B00       TControlItem.GlobalToLocal
 0001:00048B1C       TControlItem.Invalidate
 0001:00048B28       TControlItem.LocalToGlobal
 0001:00048B44       TControlItem.SetBoundsRect
 0001:00048B50       TControlItem.SetParent
 0001:00048B78       TControlItem.Show
 0001:00048B84       TControlItem.ZOrder
 0001:00048BA8       TNonControlItem.Create
 0001:00048BE8       TNonControlItem.GetBoundsRect
 0001:00048BFC       TNonControlItem.GetParent
 0001:00048C08       TNonControlItem.GlobalToLocal
 0001:00048C1C       TNonControlItem.LocalToGlobal
 0001:00048C30       TNonControlItem.SetBoundsRect
 0001:00048C34       TNonControlItem.SetParent
 0001:00048C38       TNonControlItem.Show
 0001:00048C3C       TNonControlItem.ZOrder
 0001:00048C40       TNonControlItem.GetMarked
 0001:00048C44       TNonControlItem.SetMarked
 0001:00048C48       TNonControlItem.FlipChildren
 0001:00048C4C       TNonControlItem.ValidateDeletable
 0001:00048CC0       TNonControlItem.Selectable
 0001:00048CC4       TWinControlItem.Contains
 0001:00048D4C       TWinControlItem.Create
 0001:00048D90       TWinControlItem.GetClientRect
 0001:00048DA4       TWinControlItem.FlipChildren
 0001:00048DB8       TWinControlItem.GetChildCount
 0001:00048DC4       TWinControlItem.GetChildren
 0001:00048DE8       TWinControlItem.GetWinControl
 0001:00048DEC       TWinControlItem.IsContainer
 0001:00048DF8       TWinControlItem.HasSelectableChildren
 0001:00048E1C       TContainedComponentItem.Create
 0001:00048EA8       TContainedComponentItem.GetBoundsRect
 0001:00048EBC       TContainedComponentItem.GetExtendedRect
 0001:00048F18       TContainedComponentItem.GetParent
 0001:00048F2C       TContainedComponentItem.GlobalToLocal
 0001:00048F48       TContainedComponentItem.Invalidate
 0001:00048F54       TContainedComponentItem.LocalToGlobal
 0001:00048F70       TContainedComponentItem.SetBoundsRect
 0001:00048F7C       TContainedComponentItem.SetParent
 0001:00048F80       TContainedComponentItem.Show
 0001:00048F84       TComponentRootItem.Create
 0001:00049004       TComponentRootItem.GetControl
 0001:00049008       TComponentRootItem.GetWinControl
 0001:0004900C       TComponentRootItem.GetBoundsRect
 0001:00049020       TComponentRootItem.GlobalToLocal
 0001:0004903C       TComponentRootItem.Invalidate
 0001:00049048       TComponentRootItem.IsContainer
 0001:0004904C       TComponentRootItem.LocalToGlobal
 0001:00049068       TComponentRootItem.SetParent
 0001:0004906C       TComponentRootItem.Show
 0001:00049078       TDesignerToolWindow.Create
 0001:000490D8       TDesignerToolWindow.Destroy
 0001:00049124       TDesignerToolWindow.CreateHandle
 0001:0004923C       TDesignerToolWindow.Invalidate
 0001:0004924C       TDesignerToolWindow.Sync
 0001:00049288       TDesignerToolWindow.MainWndProc
 0001:000492D8       TDesignerToolWindow.WndProc
 0001:00049354       TDesignerToolWindow.EnsureHandle
 0001:00049360       TComponentToolWindow.Create
 0001:000493A8       TComponentToolWindow.WndProc
 0001:000494EC       TContainerCaption.Create
 0001:00049550       TContainerCaption.Destroy
 0001:00049580       TContainerCaption.Update
 0001:000495A4       TContainerCaption.WndProc
 0001:00049694       TContainerCaption.Position
 0001:00049780       TContainerCaption.Sync
 0001:00049794       TContainerCaption.GetContainer
 0001:00049858       TComponentObserver.Create
 0001:000498AC       TComponentObserver.Notification
 0001:000498E4       TContainer.Create
 0001:000499B8       TContainer.Destroy
 0001:00049A00       TContainer.Sync
 0001:00049A18       TContainer.Update
 0001:00049A28       TContainer.Position
 0001:00049A50       TContainer.GetBoundsRect
 0001:00049A84       TContainer.GetShowCaption
 0001:00049A8C       TContainer.GetLeft
 0001:00049AA4       TContainer.SetBoundsRect
 0001:00049AEC       TContainer.SetShowCaption
 0001:00049B50       TContainer.SetLeft
 0001:00049B74       TContainer.WndProc
 0001:00049E8C       TContainer.GetContainer
 0001:00049E90       GrabHandleWndProc
 0001:00049F30       TGrabHandles.Create
 0001:0004A07C       TGrabHandles.Destroy
 0001:0004A0C4       TGrabHandles.GetSelection
 0001:0004A0D8       TGrabHandles.Hide
 0001:0004A128       TGrabHandles.Invalidate
 0001:0004A14C       TGrabHandles.SetSelection
 0001:0004A180       TGrabHandles.GetParentOf
 0001:0004A23C       TGrabHandles.SyncParent
 0001:0004A304       TGrabHandles.SetActive
 0001:0004A314       TGrabHandles.Show
 0001:0004A32C       TGrabHandles.Update
 0001:0004A414       TGrabHandles.WndProc
 0001:0004A54C       TVclDragBoxes.Create
 0001:0004A63C       TVclDragBoxes.Destroy
 0001:0004A688       TVclDragBoxes.Add
 0001:0004A6B0       TVclDragBoxes.Change
 0001:0004A714       TVclDragBoxes.MoveBy
 0001:0004A778       TVclDragBoxes.DrawBox
 0001:0004A8AC       TVclDesignSurface.Activate
 0001:0004A8CC       TVclDesignSurface.BeginDragging
 0001:0004A970       CreateSpecialItems
 0001:0004AAB8       AddFormLocalMenu
 0001:0004AE5C       AddModuleLocalMenu
 0001:0004B064       InitBaseMenu
 0001:0004B17C       NewContextItem
 0001:0004B2A4       AddModuleVerbs
 0001:0004B3B4       AddSelectionVerbs
 0001:0004B4FC       AddComponentVerbs
 0001:0004B608       TVclDesignSurface.BuildLocalMenu
 0001:0004B694       VisibleRoot
 0001:0004B6DC       InternalFindContainer
 0001:0004B700       TVclDesignSurface.CheckContainer
 0001:0004B768       TVclDesignSurface.InstanceInserted
 0001:0004B7D8       TVclDesignSurface.InstanceRemoved
 0001:0004B810       TVclDesignSurface.ComponentVerb
 0001:0004B828       CheckContainersOf
 0001:0004B890       TVclDesignSurface.Create
 0001:0004BA18       TVclDesignSurface.CursorPosition
 0001:0004BA44       TVclDesignSurface.DesignerToGlobal
 0001:0004BA60       TVclDesignSurface.Destroy
 0001:0004BAA4       TVclDesignSurface.FindContainer
 0001:0004BAD4       ApproveControls
 0001:0004BB14       AddControls
 0001:0004BB90       AddComponents
 0001:0004BBFC       TVclDesignSurface.FindNextItem
 0001:0004BCF8       TVclDesignSurface.FlipContainers
 0001:0004BD60       TVclDesignSurface.Focus
 0001:0004BD64       TVclDesignSurface.GetCustomForm
 0001:0004BD68       TVclDesignSurface.GetGridOffset
 0001:0004BDBC       TVclDesignSurface.GetIsControl
 0001:0004BDC0       TVclDesignSurface.GetOffset
 0001:0004BDCC       TVclDesignSurface.GetShiftState
 0001:0004BDFC       TVclDesignSurface.GlobalToDesigner
 0001:0004BE18       TVclDesignSurface.GridSnapDisabled
 0001:0004BE28       TVclDesignSurface.GrabHandleMouseDown
 0001:0004BEC0       TVclDesignSurface.InvokeLocalMenu
 0001:0004BFE8       TranslatePoint
 0001:0004C028       IsDblClick
 0001:0004C044       MouseEvent
 0001:0004C2A8       KeyEvent
 0001:0004C37C       CharEvent
 0001:0004C41C       GetPaintInfo
 0001:0004C47C       PaintEvent
 0001:0004C5C8       PosChanged
 0001:0004C6A0       FormClose
 0001:0004C6C8       TVclDesignSurface.IsDesignMsg
 0001:0004C9DC       TVclDesignSurface.IsModifiableFrame
 0001:0004CA14       TVclDesignSurface.ItemFor
 0001:0004CAE4       TVclDesignSurface.LocalPopup
 0001:0004CB4C       TVclDesignSurface.ModuleVerb
 0001:0004CB64       MoveContainersFor
 0001:0004CCE0       TVclDesignSurface.MoveContainersFront
 0001:0004CD60       TVclDesignSurface.Notification
 0001:0004CDD4       DrawPixels
 0001:0004CE34       TVclDesignSurface.PaintGrid
 0001:0004D008       TVclDesignSurface.ResyncContainers
 0001:0004D034       TVclDesignSurface.SelectionVerb
 0001:0004D094       TVclDesignSurface.SetCustomForm
 0001:0004D098       TVclDesignSurface.SetOptions
 0001:0004D118       TVclDesignSurface.Update
 0001:0004D188       TVclDesignSurface.UpdateSelection
 0001:0004D18C       TVclDesignSurface.ValidateRename
 0001:0004D344       TDesignerHintWindow.Create
 0001:0004D388       TDesignerHintWindow.IsHintMsg
 0001:0004D40C       HintGetMsgHook
 0001:0004D4B0       HookHintHooks
 0001:0004D4D4       UnhookHintHooks
 0001:0004D4F0       TVclDesignSurface.IsHintMsg
 0001:0004D544       TVclDesignSurface.FindDragTarget
 0001:0004D580       TVclDesignSurface.DragHintMouseMessage
 0001:0004D65C       TVclDesignSurface.DragHintMouseMessage
 0001:0004D74C       TVclDesignSurface.GetDragHintInfo
 0001:0004DBB0       TVclDesignSurface.HideDragHint
 0001:0004DBEC       TVclDesignSurface.CancelDragHint
 0001:0004DC28       TVclDesignSurface.UpdateDragHint
 0001:0004DC64       FindScanline
 0001:0004DC74       GetCursorHeightMargin
 0001:0004DDC4       ValidateHintWindow
 0001:0004DE10       TVclDesignSurface.ActivateDragHint
 0001:0004E280       TVclDesignSurface.DragHintTimerExpired
 0001:0004E2B8       TVclDesignSurface.StartDragHintTimer
 0001:0004E300       TVclDesignSurface.StopDragHintTimer
 0001:0004E334       TVclDesignSurface.DesignerClosed
 0001:0004E338       TVclDesignSurface.DesignerOpened
 0001:0004E33C       TVclDesignSurface.ItemDeleted
 0001:0004E340       TVclDesignSurface.ItemInserted
 0001:0004E344       TVclDesignSurface.ItemsModified
 0001:0004E348       TVclDesignSurface.SelectionChanged
 0001:0004E360       TVclDesignSurface.GetSelectionEditors
 0001:0004E3C4       TVclDesignSurface.GetSelectionMessages
 0001:0004E43C       TVclDesignSurface.Close
 0001:0004E468       GetVCLDesignSurface
 0001:0004E4E0       InitAtom
 0001:0004E590       TDragNilTarget.DragOver
 0001:0004E59C       TDragNilTarget.DragDrop
 0001:0004E614       TDragTargetEntry.Create
 0001:0004E660       CreateDragTarget
 0001:0004E6B4       RegisterDragTarget
 0001:0004E6D8       TVclDesignSurface.VCLDragDrop
 0001:0004E7F8       RegisterDesignDragObject
 0001:0004E848       IsDesignDragObject
 0001:0004E890       GroupChanged
 0001:0004E914       TVclDesignSurface.MenuCommand
 0001:0004E940       Finalization
 0001:0004E9A0       VCLSurface
 0001:0004EDF8       TWinControlForm.Create
 0001:0004EE60       TWinControlForm.Destroy
 0001:0004EE98       TWinControlForm.AfterConstruction
 0001:0004EEB0       TWinControlForm.Initialize
 0001:0004F004       TWinControlForm.Modified
 0001:0004F088       TWinControlForm.FormResize
 0001:0004F0C8       TWinControlForm.UpdateSizers
 0001:0004F14C       TWinControlForm.DragStart
 0001:0004F18C       TWinControlForm.DragMove
 0001:0004F204       TWinControlForm.DragEnd
 0001:0004F214       TWinControlForm.SizerMouseDown
 0001:0004F270       TWinControlForm.SizerMouseMove
 0001:0004F2C8       TWinControlForm.SizerMouseUp
 0001:0004F2D4       TWinControlForm.DesignerClosed
 0001:0004F2D8       TWinControlForm.DesignerOpened
 0001:0004F30C       TWinControlForm.ItemDeleted
 0001:0004F310       TWinControlForm.ItemInserted
 0001:0004F314       TWinControlForm.ItemsModified
 0001:0004F31C       TWinControlForm.SelectionChanged
 0001:0004F320       TWinControlCustomModule.CreateDesignerForm
 0001:0004F378       Finalization
 0001:0004F3A8       WCtlForm
 0001:0004F490       Finalization
 0001:0004F4C0       MnuConst
 0001:0004F690       BuildTemplateFileName
 0001:0004F71C       TMenuTemplate.Create
 0001:0004F760       TMenuTemplate.SetItem
 0001:0004F778       TMenuTemplate.LoadFromClipboard
 0001:0004F818       TMenuTemplate.ReadStream
 0001:0004FA48       TMenuTemplate.ReaderSetName
 0001:0004FAF4       TMenuTemplate.ComponentRead
 0001:0004FB58       TMenuTemplate.ReadState
 0001:0004FB9C       TMenuTemplate.GetChildren
 0001:0004FBAC       TMenuTemplate.GetChildOwner
 0001:0004FBB0       TMenuTemplateManager.Create
 0001:0004FBEC       TMenuTemplateManager.Destroy
 0001:0004FC14       TMenuTemplateManager.GetChildren
 0001:0004FC68       TMenuTemplateManager.GetTemplate
 0001:0004FCA4       TMenuTemplateManager.GetTemplatesSize
 0001:0004FCAC       TMenuTemplateManager.IsSpaceAvailable
 0001:0004FCC0       TMenuTemplateManager.TemplateSaveAs
 0001:0004FD28       TMenuTemplateManager.Notification
 0001:0004FD44       TMenuTemplateManager.StreamTemplatesOut
 0001:0004FDB4       TMenuTemplateManager.DoesTemplateExist
 0001:0004FE4C       RemoveComponents
 0001:0004FE78       LoadMenuTemplateManagerFromDisk
 0001:00050004       Finalization
 0001:00050040       MenuTmpl
 0001:000502AC       TMtSvDlg.SelectionBoxClick
 0001:00050320       TMtSvDlg.GetData
 0001:00050374       TMtSvDlg.SetData
 0001:00050438       TMtSvDlg.HelpButtonClick
 0001:00050450       Finalization
 0001:00050480       MtSvDlg
 0001:000506A8       TMenuSelectDialog.HelpButtonClick
 0001:000506C0       TMenuSelectDialog.GetData
 0001:00050708       TMenuSelectDialog.SetData
 0001:00050788       TMenuSelectDialog.SelectionBoxDblClick
 0001:00050794       Finalization
 0001:000507C4       MnuSelct
 0001:000509C8       TMtDeDlg.OkButtonClick
 0001:000509D4       TMtDeDlg.HelpButtonClick
 0001:000509EC       TMtDeDlg.SetData
 0001:00050A60       Finalization
 0001:00050A90       MtDeDlg
 0001:00050CA0       TMtInDlg.OkButtonClick
 0001:00050CAC       TMtInDlg.HelpButtonClick
 0001:00050CC4       TMtInDlg.GetData
 0001:00050D0C       TMtInDlg.SetData
 0001:00050D80       Finalization
 0001:00050DB0       MtInDlg
 0001:00050DB8       UniquifyName
 0001:00050E84       SetPropertiesAndEvents
 0001:00050F84       MenuClone
 0001:00050FF4       MenuTemplateDelete
 0001:00051114       MenuTemplateInsert
 0001:00051194       CheckForDuplicate
 0001:0005123C       CreateTheTemplate
 0001:000512B8       MenuTemplateSave
 0001:00051444       Finalization
 0001:00051474       MtMisc
 0001:00051534       TMenuParser.Create
 0001:000515A0       TMenuParser.Destroy
 0001:000515DC       TMenuParser.Error
 0001:000515E4       TMenuParser.ErrorStr
 0001:00051624       TMenuParser.NextToken
 0001:000517B4       TMenuParser.ReadBuffer
 0001:0005187C       SkipToEOL
 0001:000518B8       SkipComment
 0001:000519AC       TMenuParser.SkipBlanks
 0001:00051A30       TMenuParser.TokenString
 0001:00051A5C       TMenuParser.TokenSymbolIs
 0001:00051AC0       CheckForLoadOption
 0001:00051B18       CheckForItemOption
 0001:00051C1C       CheckForMemoryOption
 0001:00051C98       ParseMenuItem
 0001:00051E3C       ParsePopup
 0001:00052104       SkipToMenuStart
 0001:0005214C       ParseMenu
 0001:00052400       ParseResource
 0001:0005245C       LoadMenuFromResource
 0001:0005255C       Finalization
 0001:0005258C       MnuFile
 0001:00052FD4       OutputDebug
 0001:00052FD8       OutputDebug
 0001:00052FF8       TransientMenuItem
 0001:00053014       NewTransientMenuItem
 0001:00053030       IsFocusable
 0001:00053084       IsItemEmpty
 0001:000530AC       IsThisChicago
 0001:000530B8       CaptionToName
 0001:00053290       MenuAutoName
 0001:00053468       CorrectItem
 0001:000534C8       MenuTreeAutoName
 0001:00053524       SelectAndMakeActive
 0001:00053660       GetBitMapWidth
 0001:0005369C       TMenuBuilder.FormResize
 0001:000536D4       TMenuBuilder.FormActivate
 0001:000538DC       TMenuBuilder.FormDeactivate
 0001:000538E4       TMenuBuilder.FormMouseDown
 0001:000538F4       TMenuBuilder.ActiveChanged
 0001:00053940       ModifySettings
 0001:00053954       TMenuBuilder.AdjustScrollBars
 0001:00053A8C       TMenuBuilder.BuildCaptionFromPieces
 0001:00053B4C       FindItemWinForMenu
 0001:00053B9C       TMenuBuilder.CheckDragAcceptance
 0001:00053C24       TMenuBuilder.ClearDragState
 0001:00053C44       TMenuBuilder.ClearWorkMenu
 0001:00053C88       FindGenesisOfMenuItem
 0001:00053CA0       FindCtlForItem
 0001:00053D1C       TMenuBuilder.GetActiveItem
 0001:00053D3C       TMenuBuilder.GetANewMenu
 0001:00053D88       TMenuBuilder.GetSubWinForItem
 0001:00053DEC       TMenuBuilder.GetScrollVisibility
 0001:00053E40       TMenuBuilder.HandleAltF10
 0001:00053EC4       TMenuBuilder.IsInDDList
 0001:00053EE0       TMenuBuilder.IsFirstWindowHome
 0001:00053F3C       TMenuBuilder.ItemGotFocus
 0001:00053F74       BreakConnections
 0001:00053FF8       CreateNew
 0001:00054034       HideOthers
 0001:00054108       SearchForExisting
 0001:00054174       SearchForHidden
 0001:000541C4       ReturnAppropriateWin
 0001:00054230       ShowAndMove
 0001:00054320       TMenuBuilder.NewPopup
 0001:0005443C       TMenuBuilder.ReConstructDDList
 0001:000545A8       FindParentItem
 0001:00054610       TMenuWin.SyncSelection
 0001:00054700       TMenuBuilder.SyncSelection
 0001:0005474C       TMenuBuilder.ResetAllSelections
 0001:00054788       TMenuBuilder.SetDragState
 0001:000547C8       IsThisAMainMenu
 0001:00054804       GetTopLevelItem
 0001:00054830       TMenuBuilder.SetMenu
 0001:000549EC       TMenuBuilder.Notification
 0001:00054A2C       TMenuBuilder.SetWorkMenu
 0001:00054A38       TMenuBuilder.ChangeWorkMenu
 0001:00054BB4       TMenuBuilder.PerformUpdate
 0001:00054C2C       IsSelection
 0001:00054C88       TMenuBuilder.GetEditState
 0001:00054D30       TMenuBuilder.Cut
 0001:00054D44       TMenuBuilder.Copy
 0001:00054DA8       TMenuBuilder.Paste
 0001:00054E34       TMenuBuilder.Delete
 0001:00054E7C       TMenuBuilder.EditAction
 0001:00054EB4       GetMenuFont
 0001:00054EF8       TMenuBuilder.GetWindowForItem
 0001:00054F40       TMenuBuilder.DesignerClosed
 0001:00054F64       TMenuBuilder.DesignerOpened
 0001:00054F68       TMenuBuilder.ItemDeleted
 0001:00054FF0       TMenuBuilder.ItemInserted
 0001:00054FF4       TMenuBuilder.ItemsModified
 0001:0005508C       TMenuWin.Create
 0001:00055164       TMenuWin.CreateParams
 0001:0005518C       TMenuWin.CMFocusChanged
 0001:000551C4       TMenuWin.Paint
 0001:00055320       TMenuWin.CreateAndPositionNewItem
 0001:00055454       TMenuWin.FindControlIndex
 0001:0005548C       TMenuWin.GetActiveItem
 0001:000554DC       TMenuWin.GetItemsSelected
 0001:00055514       TMenuWin.GetLongestCaption
 0001:00055568       TMenuWin.GetLongestShortCut
 0001:000555A0       TMenuWin.HideNextLevels
 0001:000555D4       TMenuWin.InitDragDrop
 0001:0005561C       TMenuWin.GetWindowForItem
 0001:00055678       FreeTemplate
 0001:000556A8       TMenuWin.InsertMenuTemplate
 0001:000557DC       TMenuWin.IsAncestorLevel
 0001:00055800       TMenuWin.IsLastItemEmpty
 0001:0005583C       TMenuWin.IsParentLevel
 0001:0005586C       TMenuWin.ItemDblClick
 0001:000558F8       TMenuWin.ItemGotFocus
 0001:0005593C       HandleHomeEnd
 0001:00055994       TMenuWin.ItemKeyDown
 0001:00055AD0       HandleEscape
 0001:00055B14       IsOkToEdit
 0001:00055B38       TMenuWin.ItemKeyPress
 0001:00055BE8       PerformSelectionActions
 0001:00055D68       SetInitialValues
 0001:00055DC4       TMenuWin.ItemOnMouseDown
 0001:00055E0C       TMenuWin.MenuInvalidNotification
 0001:00055E3C       TMenuWin.NavItemIncrement
 0001:00055EA0       HandleVKRight
 0001:00055F9C       TMenuWin.NavItemLR
 0001:00056094       NavTopUD
 0001:000560E8       TMenuWin.NavItemUD
 0001:00056138       TMenuWin.NewSubMenu
 0001:00056198       DetermineInsertPosition
 0001:000561DC       TMenuWin.NewMenuItem
 0001:00056318       AdjustWindowItems
 0001:000563DC       ConstructList
 0001:00056458       CheckForDescendants
 0001:000564C8       DeleteMenuItems
 0001:00056528       DeleteWindowItems
 0001:000565B8       HandleEmptyMenu
 0001:0005665C       TMenuWin.RemoveMenuItem
 0001:000567C4       TMenuWin.ResetAllSelections
 0001:000567FC       TMenuWin.SetItemProperties
 0001:00056870       TMenuWin.SetPosition
 0001:00056970       TMenuWin.SetWorkMenu
 0001:00056A10       SizeTop
 0001:00056AD8       SizeSub
 0001:00056BFC       TMenuWin.SizeItemWindows
 0001:00056C24       TMenuWin.StreamSelections
 0001:00056CD8       TMenuWin.TreatAsMenuBar
 0001:00056CFC       RemoveExtraWindows
 0001:00056D34       ReturnAppropriateWindow
 0001:00056D88       SetInitialValues
 0001:00056E64       UpdateSelfValues
 0001:00056EC0       UpdateValues
 0001:00056EFC       TMenuWin.UpdateMenuAssignments
 0001:00056FE0       TMenuWin.UpdatePropertyInspector
 0001:000570A4       TMenuWin.VerifyWindowsMatchMenu
 0001:00057104       TMenuWin.WidenItems
 0001:00057144       RelocateItemWindows
 0001:000572A4       TMenuWin.AdjustAfterParentSize
 0001:00057310       FindNewBounds
 0001:000573AC       TMenuWin.PositionAfterParentSize
 0001:00057448       HandleNewItem
 0001:00057594       SetInitialValues
 0001:000575B0       TMenuWin.UpdateNotification
 0001:00057670       MoveDroppedMenus
 0001:000576D8       SelectItems
 0001:00057798       SetInitialValues
 0001:0005790C       TMenuWin.MenuDragDrop
 0001:000579B0       TMenuWin.MenuDragOver
 0001:00057A5C       TMenuWin.MenuEndDrag
 0001:00057C08       TMenuWin.Notification
 0001:00057C38       TMenuItemWin.Create
 0001:00057D60       TMenuItemWin.Destroy
 0001:00057DA8       TMenuItemWin.DoSetColor
 0001:00057DF4       TMenuItemWin.GetCaptionExtent
 0001:00057E10       TMenuItemWin.GetMenuItem
 0001:00057E50       TMenuItemWin.MenuOwner
 0001:00057E60       TMenuItemWin.Notification
 0001:00057E80       EraseAll
 0001:00057F10       TMenuItemWin.Paint
 0001:00058078       TMenuItemWin.PaintItemFocusRect
 0001:000580C0       TMenuItemWin.PaintItemGlyph
 0001:00058280       TMenuItemWin.PaintItemShortcut
 0001:00058468       TMenuItemWin.PaintItemText
 0001:00058668       TMenuItemWin.PaintSeparator
 0001:0005877C       TMenuItemWin.SetExtentValues
 0001:000588D8       TMenuItemWin.SetMenuItem
 0001:00058970       TMenuItemWin.SetSelected
 0001:000589D4       TMenuItemWin.WMGetDlgCode
 0001:000589DC       TMenuBuilder.FormCreate
 0001:00058BEC       TMenuBuilder.FormDestroy
 0001:00058C24       TMenuBuilder.FormClose
 0001:00058C30       TMenuBuilder.PopupMenu1SelectMenuClick
 0001:00058CE0       TMenuBuilder.PopupMenu1InsertFromTemplateClick
 0001:00058D64       TMenuBuilder.PopupMenu1SaveAsTemplateClick
 0001:00058DAC       TMenuBuilder.PopupMenu1DeleteTemplatesClick
 0001:00058DF0       TMenuBuilder.MnuBuildPopupPopup
 0001:00058F3C       TMenuBuilder.DoActivate
 0001:00058FD0       TMenuBuilder.WMWinIniChange
 0001:00058FD4       TMenuItemProperty.GetValue
 0001:00059004       TMenuItemProperty.GetAttributes
 0001:00059010       TMenuItemProperty.Edit
 0001:000590B8       TMenuEditor.Edit
 0001:00059184       TMenuEditor.ExecuteVerb
 0001:00059190       TMenuEditor.GetVerb
 0001:000591B0       TMenuEditor.GetVerbCount
 0001:000591B8       TMenuBuilder.InsertItemClick
 0001:00059204       TMenuBuilder.DeleteItemClick
 0001:0005920C       TMenuBuilder.CreateSubmenu1Click
 0001:00059258       TMenuBuilder.InsertResourceItemClick
 0001:00059344       TMenuBuilder.SelectionChanged
 0001:00059594       TMenuBuilder.UpdatePropertyInspector
 0001:0005965C       Register
 0001:00059698       Finalization
 0001:000596D4       MnuBuild
 0001:00059824       MetaSave
 0001:00059A00       ShowProgress
 0001:00059A24       DrawBounds
 0001:00059E40       CalculatePageCount
 0001:00059E94       MetaPrint
 0001:0005A590       Finalization
 0001:0005A5D8       MetaSupport
 0001:0005ABA0       GetOleObjectClassRec
 0001:0005AC8C       TOleControlEditor.Create
 0001:0005AD20       TOleControlEditor.Destroy
 0001:0005AD5C       TOleControlEditor.DoVerb
 0001:0005AE04       TOleControlEditor.Edit
 0001:0005AE1C       TOleControlEditor.ExecuteVerb
 0001:0005AE44       TOleControlEditor.GetVerb
 0001:0005AE6C       TOleControlEditor.GetVerbCount
 0001:0005AFC0       MapOleCustomProperty
 0001:0005B02C       TOleCustomProperty.GetAttributes
 0001:0005B04C       TOleCustomProperty.GetValue
 0001:0005B07C       TOleCustomProperty.GetValues
 0001:0005B150       TOleCustomProperty.SetValue
 0001:0005B180       TOlePropPageProperty.GetAttributes
 0001:0005B1C0       TOlePropPageProperty.Edit
 0001:0005B378       TOleEnumProperty.GetAttributes
 0001:0005B398       TOleEnumProperty.GetValue
 0001:0005B3DC       TOleEnumProperty.GetValues
 0001:0005B404       TOleEnumProperty.Initialize
 0001:0005B430       TOleEnumProperty.SetValue
 0001:0005B478       TOleObjectEditor.Create
 0001:0005B4BC       TOleObjectEditor.Edit
 0001:0005B514       TOleFontEditor.Edit
 0001:0005B5F0       TOleObjectProperty.Edit
 0001:0005B6C8       TOleObjectProperty.GetAttributes
 0001:0005B770       TOleObjectProperty.GetValue
 0001:0005B848       RegisterOleObjectEditor
 0001:0005B8AC       Register
 0001:0005B958       Finalization
 0001:0005B988       OCXReg
 0001:0005BDB0       @GetPackageInfoTable
 0001:0005BDB8       @PackageLoad
 0001:0005BDC4       @PackageUnload
 0001:0005BDD0       designide
 0002:00000000       Module
 0002:00000018       TlsProc
 0002:00000028       ExceptionHandler
 0002:0000002C       CLocalMenusIf
 0002:00000030       LibraryWizardProc
 0002:00000034       Deltas
 0002:00000054       GReferenceExpandable
 0002:00000058       GShowReadOnlyProps
 0002:0000005C       Precisions
 0002:00000070       PropClassMap
 0002:000000B8       PropertyMapperList
 0002:000000BC       ComponentClassList
 0002:000000C0       VarTypeNames
 0002:00000114       GShowClassNameInTreeView
 0002:00000118       CUIControlImageIndex
 0002:00000120       InternalSprigTypeList
 0002:00000124       InternalRootSprigTypeList
 0002:00000128       CImageIndex
 0002:00000130       cDeleteStyle
 0002:00000134       CStateIndex
 0002:0000013C       InternalRootSprigList
 0002:00000140       EmptyRect
 0002:00000150       EmptyPoint
 0002:00000158       OffScreenRect
 0002:00000168       OffScreenPoint
 0002:00000170       EvRootActivatedEvent
 0002:00000174       Empty
 0002:0000017C       StringsFileSystem
 0002:00000180       RegisterMenu
 0002:00000188       UnregisterMenu
 0002:00000190       RegisterMainFormShown
 0002:00000194       UnregisterMainFormShown
 0002:00000198       GetDockable
 0002:0000019C       IDEIniFile
 0002:000001A0       GetFieldAddress
 0002:000001A4       RegisterFieldAddress
 0002:000001A8       UnregisterFieldAddress
 0002:000001AC       AddMainFormCreatedEvent
 0002:000001B0       RemoveMainFormCreatedEvent
 0002:000001B4       AddMainFormShownEvent
 0002:000001B8       RemoveMainFormShownEvent
 0002:000001BC       DockHostClasses
 0002:000001C4       CloseActions
 0002:000001C8       Separators
 0002:000001CC       DownStyles
 0002:000001D4       FillStyles
 0002:000001DC       DropdownStyles
 0002:000001E4       EditorViewList
 0002:000001E8       LibraryExpertProc
 0002:000001EC       ToolServices
 0002:000001F0       FontNamePropertyDisplayFontNames
 0002:000001F4       BaseRegistryKey
 0002:000001F8       NotifyActionListChange
 0002:000001FC       DesignersList
 0002:00000200       ActionClasses
 0002:00000204       ModalResults
 0002:00000230       ShortCuts
 0002:0000030C       EmptyPoint
 0002:00000314       ShowCommands
 0002:0000031C       CollectionEditorsList
 0002:00000320       ContainerWindowClass
 0002:00000348       GrabHandleWindowClass
 0002:00000370       CursorNames
 0002:00000390       Affects
 0002:00000398       KeyMap
 0002:000003BC       GLoadedTemplatesFrom
 0002:000003C0       MenuEditor
 0002:000003C4       DINFileExist
 0002:000003C8       MetaPrintBorderSize
 0002:000003CC       MetaPrintHeaderSize
 0002:000003D0       MetaPrintOverlapSize
 0002:000003D4       CMetaSaveExtensions
 0002:000003DC       cBorderColor
 0002:000003E4       OleObjectClassList
 0002:00001000       ModuleIsLib
 0002:00001001       ModuleIsPackage
 0002:00001004       TlsIndex
 0002:0000100C       HInstance
 0002:00001010       .1
 0002:00001014       tlsBuffer
 0002:00001018       .1
 0002:0000101C       .3
 0002:00001020       .1
 0002:00001024       .2
 0002:00001028       .1
 0002:0000102C       .1
 0002:00001030       .1
 0002:00001034       .1
 0002:00001038       .1
 0002:0000103C       .1
 0002:00001040       .1
 0002:00001044       .3
 0002:00001048       .1
 0002:0000104C       .1
 0002:00001050       .5
 0002:00001054       .1
 0002:00001058       RegisterDesignNotificationProc
 0002:0000105C       UnregisterDesignNotificationProc
 0002:00001060       RegisterPropertyEditorProc
 0002:00001064       SetPropertyEditorGroupProc
 0002:00001068       RegisterPropertyInCategoryProc
 0002:0000106C       RegisterPropertyMapperProc
 0002:00001070       RegisterComponentEditorProc
 0002:00001074       RegisterSelectionEditorProc
 0002:00001078       RegisterCustomModuleProc
 0002:0000107C       RegisterDragTargetProc
 0002:00001080       RegisterDesignDragObjectProc
 0002:00001084       .7
 0002:00001088       .1
 0002:0000108C       BorlandIDEServices
 0002:00001090       .3
 0002:00001094       .1
 0002:00001098       .01
 0002:0000109C       .1
 0002:000010A0       MethodNumbers
 0002:000010A4       ProxyList
 0002:000010A8       GetTopLevelComponentFunc
 0002:000010AC       .72
 0002:000010B0       PropertyClassList
 0002:000010B4       SelectionEditorDefinitionList
 0002:000010B8       GroupNotifyList
 0002:000010BC       EditorGroupList
 0002:000010C0       .1
 0002:000010C4       .4
 0002:000010C8       .2
 0002:000010CC       .2
 0002:000010D0       .51
 0002:000010D4       CopySprigGlyphFunc
 0002:000010DC       .02
 0002:000010E0       .1
 0002:000010E4       Handlers
 0002:000010E8       .12
 0002:000010EC       InternalDesigners
 0002:000010F0       NoIconClasses
 0002:000010F4       DesignNotifications
 0002:000010F8       CustomModules
 0002:000010FC       UniqueNumber
 0002:00001100       DesignerFuncs
 0002:00001104       StringsFileSystemCounter
 0002:00001108       StringsFileSystemIndex
 0002:0000110C       .7
 0002:00001110       .2
 0002:00001114       .2
 0002:00001118       .4
 0002:0000111C       .1
 0002:00001120       InitializeForm
 0002:00001124       LoadedDesktopFormInstances
 0002:00001128       .2
 0002:0000112C       DesktopForms
 0002:00001130       DesktopUpdateCount
 0002:00001134       UpdatesDisabled
 0002:00001138       DeferRecalcVisibleMsg
 0002:0000113C       DeferDoLayoutMsg
 0002:00001140       .1
 0002:00001144       .3
 0002:00001148       .2
 0002:0000114C       .2
 0002:00001150       .1
 0002:00001154       DesktopFormClasses
 0002:00001158       DesktopProcs
 0002:0000115C       .2
 0002:00001160       HostDockFormList
 0002:00001164       .2
 0002:00001168       .2
 0002:0000116C       .6
 0002:00001170       .2
 0002:00001174       .2
 0002:00001178       .2
 0002:0000117C       .1
 0002:00001180       .6
 0002:00001184       DsnCommands
 0002:00001188       .2
 0002:0000118C       RegisterCustomEditorViewProc
 0002:00001190       UnregisterCustomEditorViewProc
 0002:00001194       .5
 0002:00001198       .2
 0002:0000119C       .5
 0002:000011A0       .3
 0002:000011A4       .4
 0002:000011A8       InternalPropertyCategoryList
 0002:000011AC       .2
 0002:000011B0       CF_COMPONENTS
 0002:000011B4       .41
 0002:000011B8       .3
 0002:000011BC       .2
 0002:000011C0       .2
 0002:000011C4       .3
 0002:000011C8       .6
 0002:000011CC       .7
 0002:000011D0       .1
 0002:000011D4       DsgnWindowAtom
 0002:000011D8       HintHook
 0002:000011DC       DragTargetList
 0002:000011E0       DragClassRegistry
 0002:000011E4       .3
 0002:000011E8       .1
 0002:000011EC       .3
 0002:000011F0       .2
 0002:000011F4       .2
 0002:000011F8       .2
 0002:000011FC       .2
 0002:00001200       .1
 0002:00001204       .1
 0002:00001208       .9
 0002:0000120C       .1
 0002:00001210       .8


Line numbers for DsnConst(DsnConst.pas) segment .text

   119 0001:00000814   119 0001:0000081B

Line numbers for VirtIntf(VirtIntf.pas) segment .text

    43 0001:00001554    44 0001:0000156C    45 0001:00001576    46 0001:0000159B
    49 0001:000015A0    50 0001:000015A7    51 0001:000015B6    54 0001:000015BC
    55 0001:000015C0    56 0001:000015C6    57 0001:000015D2    60 0001:000015D8
    61 0001:000015DC    62 0001:000015E2    63 0001:000015EB    64 0001:00001601
    67 0001:00001608    68 0001:0000160C    69 0001:00001616    74 0001:0000161C
    75 0001:00001623    76 0001:00001633    78 0001:00001668    78 0001:0000166F

Line numbers for IStreams(IStreams.pas) segment .text

    29 0001:00002880    53 0001:00002A68    81 0001:00002C3C    82 0001:00002C57
    83 0001:00002C68    84 0001:00002C9A    88 0001:00002CA0    89 0001:00002CA4
    90 0001:00002CBC    91 0001:00002CD6    97 0001:00002CDC    98 0001:00002CE2
    99 0001:00002CF6   100 0001:00002CFC   101 0001:00002D08   102 0001:00002D1B
   103 0001:00002D2E   106 0001:00002D34   107 0001:00002D38   108 0001:00002D44
   111 0001:00002D4C   112 0001:00002D4F   113 0001:00002D58   119 0001:00002D5C
   120 0001:00002D77   122 0001:00002D7D   123 0001:00002D81   125 0001:00002D90
   126 0001:00002DBC   129 0001:00002DC4   130 0001:00002DCD   131 0001:00002DD9
   136 0001:00002DE0   141 0001:00002DFB   142 0001:00002E38   145 0001:00002E40
   146 0001:00002E49   147 0001:00002E55   150 0001:00002E5C   151 0001:00002E60
   152 0001:00002E74   153 0001:00002E7A   154 0001:00002EA1   157 0001:00002EA8
   158 0001:00002EAC   159 0001:00002EC2   162 0001:00002EC8   164 0001:00002ECB
   167 0001:00002EDE   170 0001:00002EE4   171 0001:00002EE8   172 0001:00002EF9
   173 0001:00002F0C   178 0001:00002F14   179 0001:00002F45   180 0001:00002F52
   181 0001:00002F6F   182 0001:00002FB2   185 0001:00002FC8   186 0001:00002FD1
   187 0001:00002FDA   189 0001:00002FEB   190 0001:00002FF3   193 0001:00002FF8
   194 0001:00003004   195 0001:0000300D   196 0001:0000301D   198 0001:00003054
   198 0001:0000305B

Line numbers for DesignMenus(DesignMenus.pas) segment .text

   137 0001:0000325C   137 0001:00003263

Line numbers for DesignIntf(DesignIntf.pas) segment .text

   855 0001:00003A74   931 0001:00003E50   932 0001:00003E57   933 0001:00003E60
   934 0001:00003E69   938 0001:00003E6C   939 0001:00003E78   940 0001:00003E81
   941 0001:00003E92   945 0001:00003E98   946 0001:00003EA7   947 0001:00003EB0
   949 0001:00003EC2   953 0001:00003EC8   954 0001:00003ED7   955 0001:00003EE0
   957 0001:00003EF2   961 0001:00003EF8   962 0001:00003F04   963 0001:00003F0D
   964 0001:00003F1D   970 0001:00003F24   971 0001:00003F33   972 0001:00003F40
   973 0001:00003F56   974 0001:00003F62   976 0001:00003F76   979 0001:00003F8A
   981 0001:00003F9E   984 0001:00003FB3   985 0001:00003FE7   972 0001:00003FEA
   986 0001:00003FF3   992 0001:00003FF8   993 0001:00004007   994 0001:00004010
   995 0001:00004022   996 0001:0000403A   994 0001:0000403D   997 0001:00004042
  1003 0001:00004048  1004 0001:00004057  1005 0001:00004060  1006 0001:00004072
  1007 0001:0000408A  1005 0001:0000408D  1008 0001:00004092  1013 0001:00004098
  1014 0001:0000409F  1015 0001:000040A8  1016 0001:000040B1  1019 0001:000040B4
  1020 0001:000040BB  1021 0001:000040C4  1022 0001:000040CD  1028 0001:000040D0
  1029 0001:000040EB  1030 0001:00004110  1036 0001:00004118  1037 0001:00004149
  1038 0001:0000418B  1042 0001:00004194  1043 0001:000041A0  1044 0001:000041A9
  1045 0001:000041B5  1050 0001:000041BC  1051 0001:000041C8  1052 0001:000041DC
  1057 0001:000041E0  1058 0001:000041FB  1059 0001:00004204  1060 0001:0000421C
  1059 0001:00004234  1061 0001:00004254  1064 0001:00004258  1065 0001:00004270
  1066 0001:0000427A  1067 0001:000042A7  1070 0001:000042AC  1071 0001:000042BD
  1072 0001:000042C8  1073 0001:000042E4  1078 0001:000042E8  1079 0001:000042F5
  1080 0001:000042F9  1081 0001:0000430F  1082 0001:00004327  1081 0001:00004346
  1083 0001:0000434B  1084 0001:00004352  1087 0001:00004358  1088 0001:00004364
  1089 0001:00004378  1092 0001:0000437C  1093 0001:00004385  1094 0001:00004394
  1097 0001:00004398  1098 0001:0000439F  1099 0001:000043BC  1104 0001:000043C0
  1105 0001:000043CF  1106 0001:000043D8  1108 0001:000043EB  1112 0001:000043F4
  1113 0001:00004400  1114 0001:00004409  1115 0001:00004415  1120 0001:0000441C
  1121 0001:00004428  1122 0001:0000443C  1123 0001:00004442  1124 0001:00004456
  1129 0001:00004460  1130 0001:0000447B  1131 0001:000044A0  1134 0001:000044A4
  1135 0001:000044B0  1136 0001:000044B9  1137 0001:000044C5  1142 0001:000044CC
  1143 0001:000044E7  1144 0001:0000450C  1147 0001:00004514  1148 0001:0000451D
  1149 0001:00004525  1153 0001:0000452C  1154 0001:00004538  1155 0001:00004541
  1157 0001:00004554  1163 0001:00004558  1164 0001:00004573  1165 0001:0000457D
  1166 0001:000045A6  1169 0001:000045AC  1170 0001:000045B8  1171 0001:000045C1
  1172 0001:000045CD  1175 0001:000045D4  1176 0001:000045DB  1177 0001:000045E4
  1178 0001:000045ED  1181 0001:00004620  1181 0001:00004627

Line numbers for ToolsAPI(ToolsAPI.pas) segment .text

  3045 0001:00006E2C  3046 0001:00006E33  3047 0001:00006E3C  3048 0001:00006E45
  3053 0001:00006E48  3055 0001:00006E4F  3058 0001:00006E54  3060 0001:00006E5B
  3063 0001:00006E60  3065 0001:00006E67  3068 0001:00006E6C  3070 0001:00006E73
  3072 0001:00006EB4  3072 0001:00006EBB

Line numbers for DesignConst(DesignConst.pas) segment .text

    55 0001:00006F9C    55 0001:00006FA3

Line numbers for Designer(Designer.pas) segment .text

   271 0001:00007310   308 0001:00007558   331 0001:00007690   340 0001:000077AC
   389 0001:00007930   404 0001:00007AB8   405 0001:00007AC9   406 0001:00007AD7
   407 0001:00007ADF   408 0001:00007AE8   409 0001:00007AF1   410 0001:00007AFA
   414 0001:00007B04   415 0001:00007B10   417 0001:00007B3F   422 0001:00007B44
   423 0001:00007B60   424 0001:00007B65   425 0001:00007B86   426 0001:00007BB1
   431 0001:00007BC8   432 0001:00007BD1   433 0001:00007BDC   434 0001:00007BEE
   436 0001:00007BF6   437 0001:00007BFE   440 0001:00007C04   441 0001:00007C13
   442 0001:00007C1B   443 0001:00007C26   444 0001:00007C2E   446 0001:00007C39
   447 0001:00007C41   450 0001:00007C48   451 0001:00007C51   452 0001:00007C6E
   506 0001:00007C74   507 0001:00007C7B   508 0001:00007C86   511 0001:00007C8C
   512 0001:00007C93   513 0001:00007C9B   516 0001:00007CA0   517 0001:00007CA7
   518 0001:00007CB2   521 0001:00007CB8   522 0001:00007CBF   524 0001:00007CC8
   525 0001:00007CDD   527 0001:00007CE8   531 0001:00007CEC   532 0001:00007D1B
   533 0001:00007D25   534 0001:00007D33   536 0001:00007D39   537 0001:00007D4E
   539 0001:00007D6A   540 0001:00007D78   541 0001:00007D86   542 0001:00007D8D
   543 0001:00007D97   544 0001:00007DD9   547 0001:00007DE0   548 0001:00007DE7
   549 0001:00007DEF   550 0001:00007DFA   553 0001:00007E00   554 0001:00007E11
   556 0001:00007E2D   559 0001:00007E34   560 0001:00007E51   561 0001:00007E96
   566 0001:00007E9C   567 0001:00007EB9   569 0001:00007EC8   570 0001:00007EE3
   571 0001:00007EF4   569 0001:00007F25   572 0001:00007F2A   574 0001:00007F4E
   582 0001:00007F54   583 0001:00007F74   584 0001:00007F7A   585 0001:00007F80
   586 0001:00007F84   588 0001:00007F9F   589 0001:00007FB0   592 0001:00007FED
   593 0001:00007FFB   595 0001:00007FFF   586 0001:00008002   596 0001:0000802C
   599 0001:00008034   600 0001:00008050   601 0001:0000805B   603 0001:00008078
   604 0001:00008086   606 0001:000080AA   609 0001:000080B0   610 0001:000080D5
   611 0001:000080E2   612 0001:00008104   613 0001:0000810D   614 0001:00008116
   615 0001:00008134   616 0001:00008159   619 0001:00008160   620 0001:0000816D
   622 0001:0000817E   624 0001:00008190   626 0001:000081B2   629 0001:000081B8
   630 0001:000081BF   632 0001:000081C8   633 0001:000081D3   635 0001:000081DE
   641 0001:000081E4   642 0001:00008204   644 0001:0000821E   646 0001:00008236
   648 0001:0000824B   650 0001:00008266   651 0001:00008277   652 0001:00008294
   653 0001:000082AF   648 0001:000082B2   655 0001:000082DC   658 0001:000082E4
   659 0001:000082EB   660 0001:00008301   665 0001:00008304   666 0001:00008327
   668 0001:00008334   669 0001:0000833C   670 0001:00008345   671 0001:0000834C
   672 0001:00008354   673 0001:00008362   674 0001:00008368   675 0001:0000837D
   676 0001:00008387   677 0001:00008391   678 0001:0000839B   681 0001:000083B0
   682 0001:000083D7   685 0001:00008404   690 0001:0000840C   691 0001:0000841D
   692 0001:00008439   694 0001:0000844B   695 0001:00008456   697 0001:00008463
   700 0001:0000846C   701 0001:00008478   702 0001:00008480   705 0001:00008484
   706 0001:0000848B   707 0001:00008496   722 0001:0000849C   723 0001:000084C5
   724 0001:000084D0   725 0001:000084E0   727 0001:000084F0   728 0001:00008500
   729 0001:00008510   730 0001:0000851B   731 0001:00008523   733 0001:0000852A
   735 0001:00008549   736 0001:0000855A   738 0001:0000858B   739 0001:00008596
   740 0001:000085A9   741 0001:000085BC   742 0001:000085D1   743 0001:000085E6
   744 0001:000085EA   745 0001:000085FF   746 0001:00008618   747 0001:00008631
   748 0001:0000864A   750 0001:00008661   752 0001:00008667   754 0001:0000867C
   756 0001:00008693   758 0001:000086A8   759 0001:000086BA   761 0001:000086C2
   762 0001:000086CD   766 0001:000086D3   733 0001:000086D6   767 0001:0000870F
   772 0001:00008718   773 0001:0000873B   774 0001:0000874F   775 0001:0000877A
   773 0001:0000878B   776 0001:000087B9   779 0001:000087C0   780 0001:000087C7
   782 0001:000087CD   783 0001:000087D5   785 0001:000087DD   792 0001:000087E0
   793 0001:000087EC   794 0001:000087F4   795 0001:000087FE   796 0001:00008806
   801 0001:0000880C   802 0001:0000881B   803 0001:00008824   804 0001:00008844
   805 0001:00008854   806 0001:00008870   807 0001:00008879   811 0001:00008880
   813 0001:000088A3   816 0001:000088C1   817 0001:000088F4   818 0001:00008925
   820 0001:0000892E   821 0001:0000894D   823 0001:00008970   824 0001:0000898D
   825 0001:000089AE   827 0001:000089BB   828 0001:000089C1   833 0001:000089CC
   834 0001:000089EF   835 0001:00008A14   836 0001:00008A1C   840 0001:00008A29
   841 0001:00008A37   842 0001:00008A46   843 0001:00008A5C   845 0001:00008A6A
   846 0001:00008A93   847 0001:00008ABE   848 0001:00008AE9   850 0001:00008B14
   851 0001:00008B31   854 0001:00008B6F   857 0001:00008B74   858 0001:00008B80
   859 0001:00008B91   862 0001:00008B98   863 0001:00008BA1   864 0001:00008BAD
   867 0001:00008BB4   868 0001:00008BBD   869 0001:00008BC9   875 0001:00008BD0
   876 0001:00008BF0   877 0001:00008BF4   878 0001:00008C02   879 0001:00008C1D
   880 0001:00008C3D   878 0001:00008C40   881 0001:00008C45   882 0001:00008C71
   894 0001:00008C78   895 0001:00008C9A   896 0001:00008CAD   898 0001:00008CC0
   899 0001:00008CCE   901 0001:00008CD8   902 0001:00008CF8   904 0001:00008D14
   906 0001:00008D1A   907 0001:00008D33   909 0001:00008D39   910 0001:00008D48
   912 0001:00008D57   914 0001:00008D69   915 0001:00008DA7   922 0001:00008DB4
   925 0001:00008DCF   926 0001:00008DDB   927 0001:00008DF2   929 0001:00008E02
   930 0001:00008E13   932 0001:00008E28   933 0001:00008E30   935 0001:00008E4F
   937 0001:00008E60   938 0001:00008E76   939 0001:00008E82   941 0001:00008E91
   942 0001:00008EA1   944 0001:00008EA7   945 0001:00008EB8   947 0001:00008EDC
   950 0001:00008EDE   952 0001:00008EE4   953 0001:00008EEF   957 0001:00008F3A
   959 0001:00008F44   960 0001:00008F6A   962 0001:00008F7D   964 0001:00008F87
   966 0001:00008F96   968 0001:00008FCC   970 0001:00008FFB   973 0001:00009004
   974 0001:0000900B   975 0001:00009012   976 0001:0000901D   979 0001:00009020
   980 0001:00009027   981 0001:00009032   982 0001:0000903D   986 0001:00009040
   987 0001:00009075   988 0001:0000907D   989 0001:00009088   990 0001:00009093
   991 0001:000090A1   993 0001:000090AB   995 0001:000090C2   996 0001:000090E6
   997 0001:00009101  1000 0001:00009111  1002 0001:00009121  1001 0001:0000913D
  1004 0001:0000914E  1003 0001:00009164  1006 0001:00009170  1007 0001:0000917C
  1009 0001:00009186  1010 0001:0000919C  1011 0001:000091A5  1012 0001:000091AF
  1013 0001:000091B8  1015 0001:000091C1  1016 0001:000091CA  1017 0001:000091D1
  1019 0001:000091E0  1020 0001:000091E7  1021 0001:000091F4  1023 0001:00009211
  1024 0001:00009218  1027 0001:00009255  1028 0001:00009262  1031 0001:00009272
  1032 0001:00009282  1034 0001:000092A5  1035 0001:000092AC  1037 0001:000092CA
  1038 0001:000092D8  1039 0001:000092E2  1040 0001:000092FF  1042 0001:00009305
  1043 0001:0000931E  1044 0001:00009330  1045 0001:0000933D  1046 0001:00009346
  1049 0001:00009356  1050 0001:0000935D  1052 0001:0000936A  1054 0001:00009370
  1055 0001:00009377  1056 0001:0000939E  1058 0001:000093A9  1059 0001:000093B2
  1061 0001:000093CF  1062 0001:000093D6  1064 0001:00009410  1067 0001:00009428
  1068 0001:00009437  1069 0001:00009440  1070 0001:0000944E  1073 0001:00009454
  1074 0001:00009463  1075 0001:0000946C  1076 0001:0000947C  1079 0001:00009480
  1080 0001:00009491  1081 0001:0000949F  1082 0001:000094A8  1083 0001:000094B1
  1088 0001:000094BC  1089 0001:000094EB  1090 0001:0000950B  1091 0001:00009516
  1092 0001:0000953C  1093 0001:00009557  1094 0001:00009568  1095 0001:0000956E
  1097 0001:00009598  1092 0001:000095C3  1098 0001:000095C8  1099 0001:000095F7
  1102 0001:00009600  1103 0001:00009615  1105 0001:00009623  1106 0001:00009641
  1108 0001:00009660  1111 0001:00009668  1112 0001:00009677  1114 0001:00009681
  1115 0001:00009689  1116 0001:00009697  1117 0001:0000969D  1118 0001:000096AF
  1120 0001:000096BF  1123 0001:000096CF  1124 0001:000096D7  1126 0001:000096E5
  1127 0001:000096EE  1128 0001:000096FC  1129 0001:0000970C  1131 0001:00009726
  1134 0001:00009736  1137 0001:0000973C  1138 0001:00009749  1139 0001:00009757
  1141 0001:00009769  1142 0001:00009771  1145 0001:00009778  1146 0001:00009784
  1147 0001:0000978D  1150 0001:00009794  1151 0001:000097A0  1152 0001:000097B1
  1156 0001:000097B8  1157 0001:000097C7  1158 0001:000097CD  1160 0001:000097EB
  1161 0001:000097FB  1162 0001:00009808  1164 0001:0000981D  1167 0001:00009824
  1168 0001:0000982B  1169 0001:00009832  1170 0001:0000983D  1175 0001:00009840
  1176 0001:0000984C  1177 0001:00009853  1180 0001:00009858  1181 0001:00009873
  1182 0001:0000987D  1183 0001:000098A1  1186 0001:000098A8  1187 0001:000098AF
  1188 0001:000098BA  1189 0001:000098C2  1194 0001:000098C8  1195 0001:000098E7
  1197 0001:00009941  1200 0001:00009958  1201 0001:00009964  1202 0001:0000996B
  1203 0001:00009973  1204 0001:0000997B  1205 0001:00009983  1208 0001:00009988
  1209 0001:000099A7  1210 0001:000099E6  1213 0001:000099FC  1214 0001:00009A1B
  1215 0001:00009A3D  1216 0001:00009A48  1217 0001:00009A54  1218 0001:00009A5B
  1219 0001:00009A80  1222 0001:00009A94  1223 0001:00009A9D  1224 0001:00009AA9
  1227 0001:00009AB0  1228 0001:00009ABD  1229 0001:00009ACF  1232 0001:00009AD4
  1233 0001:00009AE0  1234 0001:00009AE8  1237 0001:00009AEC  1238 0001:00009AF5
  1239 0001:00009AFC  1242 0001:00009B00  1243 0001:00009B09  1244 0001:00009B10
  1247 0001:00009B14  1249 0001:00009B20  1255 0001:00009B2C  1256 0001:00009B33
  1257 0001:00009B49  1264 0001:00009B4C  1265 0001:00009B5E  1266 0001:00009B6C
  1268 0001:00009B77  1269 0001:00009B84  1270 0001:00009BA3  1272 0001:00009BC2
  1273 0001:00009BDC  1274 0001:00009BEE  1275 0001:00009BFB  1276 0001:00009C04
  1277 0001:00009C0D  1282 0001:00009C14  1283 0001:00009C20  1284 0001:00009C3D
  1285 0001:00009C57  1287 0001:00009C68  1288 0001:00009C74  1289 0001:00009C7E
  1290 0001:00009C8C  1291 0001:00009C98  1292 0001:00009CA6  1293 0001:00009CB2
  1294 0001:00009CC0  1295 0001:00009CCC  1284 0001:00009CCF  1296 0001:00009CD4
  1299 0001:00009CD8  1300 0001:00009CEA  1301 0001:00009D0B  1302 0001:00009D22
  1303 0001:00009D43  1306 0001:00009D4C  1307 0001:00009D53  1308 0001:00009D5B
  1309 0001:00009D63  1314 0001:00009D68  1315 0001:00009D72  1316 0001:00009D88
  1315 0001:00009DAC  1317 0001:00009DB1  1322 0001:00009DB8  1323 0001:00009DC9
  1324 0001:00009DD1  1325 0001:00009DE7  1324 0001:00009E1C  1326 0001:00009E21
  1327 0001:00009E29  1332 0001:00009E30  1333 0001:00009E39  1334 0001:00009E40
  1339 0001:00009E44  1340 0001:00009E50  1342 0001:00009E5F  1343 0001:00009E88
  1344 0001:00009E96  1346 0001:00009E9E  1349 0001:00009EA4  1350 0001:00009EAB
  1351 0001:00009EB1  1354 0001:00009EB4  1355 0001:00009ECC  1356 0001:00009ED6
  1357 0001:00009F03  1360 0001:00009F08  1361 0001:00009F0F  1362 0001:00009F1A
  1363 0001:00009F22  1366 0001:00009F28  1367 0001:00009F39  1368 0001:00009F44
  1369 0001:00009F60  1372 0001:00009F64  1373 0001:00009F6B  1374 0001:00009F71
  1375 0001:00009F83  1376 0001:00009F8B  1379 0001:00009F90  1380 0001:00009F99
  1381 0001:00009FA2  1383 0001:00009FB2  1384 0001:00009FBA  1387 0001:00009FC0
  1388 0001:00009FE3  1389 0001:00009FEC  1391 0001:0000A00F  1392 0001:0000A034
  1397 0001:0000A04C  1398 0001:0000A058  1399 0001:0000A066  1400 0001:0000A077
  1405 0001:0000A07C  1406 0001:0000A09F  1407 0001:0000A0B7  1409 0001:0000A0E7
  1410 0001:0000A0ED  1411 0001:0000A0EF  1406 0001:0000A0F2  1412 0001:0000A0F7
  1413 0001:0000A126  1416 0001:0000A13C  1417 0001:0000A143  1419 0001:0000A14C
  1420 0001:0000A153  1423 0001:0000A16B  1424 0001:0000A172  1427 0001:0000A178
  1428 0001:0000A184  1430 0001:0000A18D  1431 0001:0000A19B  1433 0001:0000A1A3
  1436 0001:0000A1A8  1437 0001:0000A1B4  1438 0001:0000A1C8  1443 0001:0000A1CC
  1444 0001:0000A1D8  1445 0001:0000A1E6  1446 0001:0000A1EC  1448 0001:0000A1F9
  1449 0001:0000A204  1452 0001:0000A208  1453 0001:0000A211  1454 0001:0000A21D
  1459 0001:0000A224  1460 0001:0000A230  1461 0001:0000A23E  1464 0001:0000A244
  1465 0001:0000A25C  1466 0001:0000A297  1469 0001:0000A29C  1470 0001:0000A2A8
  1471 0001:0000A2B6  1476 0001:0000A2BC  1477 0001:0000A2DF  1478 0001:0000A2FA
  1477 0001:0000A329  1479 0001:0000A353  1481 0001:0000A398  1481 0001:0000A39F

Line numbers for Proxies(Proxies.pas) segment .text

   111 0001:0000A3A0   112 0001:0000A3A7   113 0001:0000A3C1   114 0001:0000A3CE
   119 0001:0000A3D4   120 0001:0000A3DD   122 0001:0000A3E6   123 0001:0000A3F6
   124 0001:0000A409   126 0001:0000A414   127 0001:0000A41E   130 0001:0000A425
   138 0001:0000A42C   139 0001:0000A43B   140 0001:0000A444   141 0001:0000A452
   142 0001:0000A45B   143 0001:0000A46A   144 0001:0000A478   145 0001:0000A480
   147 0001:0000A497   148 0001:0000A4AF   149 0001:0000A4BD   150 0001:0000A4CE
   161 0001:0000A4D4   162 0001:0000A4E3   163 0001:0000A4EC   164 0001:0000A4F8
   165 0001:0000A508   166 0001:0000A512   167 0001:0000A526   168 0001:0000A537
   169 0001:0000A543   170 0001:0000A54F   172 0001:0000A566   173 0001:0000A56F
   174 0001:0000A578   175 0001:0000A589   180 0001:0000A590   181 0001:0000A599
   183 0001:0000A59F   184 0001:0000A5A8   185 0001:0000A5B8   187 0001:0000A5C5
   195 0001:0000A5CC   196 0001:0000A5DB   197 0001:0000A5E4   199 0001:0000A5EA
   201 0001:0000A5FE   202 0001:0000A612   203 0001:0000A626   204 0001:0000A62F
   205 0001:0000A63E   206 0001:0000A648   207 0001:0000A651   208 0001:0000A65F
   210 0001:0000A668   216 0001:0000A66C   217 0001:0000A678   218 0001:0000A681
   220 0001:0000A68A   221 0001:0000A696   222 0001:0000A6A2   224 0001:0000A6A8
   225 0001:0000A6B3   226 0001:0000A6BC   222 0001:0000A6BF   229 0001:0000A6C5
   230 0001:0000A6CD   238 0001:0000A6D4   239 0001:0000A6E0   240 0001:0000A6EE
   242 0001:0000A6F4   243 0001:0000A6FD   244 0001:0000A706   245 0001:0000A70F
   247 0001:0000A71E   248 0001:0000A72F   249 0001:0000A738   250 0001:0000A741
   251 0001:0000A74A   252 0001:0000A755   254 0001:0000A763   257 0001:0000A768
   258 0001:0000A76C   259 0001:0000A77A   260 0001:0000A78D   263 0001:0000A790
   264 0001:0000A797   265 0001:0000A7A7   271 0001:0000A7AC   272 0001:0000A7B5
   274 0001:0000A7BE   275 0001:0000A7CA   276 0001:0000A7D6   278 0001:0000A7DC
   279 0001:0000A7E7   280 0001:0000A7F0   276 0001:0000A7F3   283 0001:0000A7F9
   286 0001:0000A800   287 0001:0000A807   288 0001:0000A80F   289 0001:0000A819
   295 0001:0000A81C   296 0001:0000A828   297 0001:0000A82C   299 0001:0000A832
   300 0001:0000A83A   297 0001:0000A843   302 0001:0000A849   303 0001:0000A850
   310 0001:0000A854   311 0001:0000A864   312 0001:0000A86C   313 0001:0000A875
   314 0001:0000A87F   315 0001:0000A88D   317 0001:0000A8AE   318 0001:0000A8C1
   320 0001:0000A8DC   322 0001:0000A8EC   339 0001:0000A8F4   340 0001:0000A906
   341 0001:0000A945   342 0001:0000A94E   343 0001:0000A956   344 0001:0000A960
   345 0001:0000A96A   346 0001:0000A974   347 0001:0000A981   348 0001:0000A989
   362 0001:0000A990   363 0001:0000A99F   364 0001:0000A9B0   373 0001:0000A9B4
   374 0001:0000A9C0   375 0001:0000A9CC   376 0001:0000A9E2   377 0001:0000A9EA
   378 0001:0000A9F3   391 0001:0000A9F8   392 0001:0000AA01   393 0001:0000AA09
   394 0001:0000AA12   395 0001:0000AA1C   396 0001:0000AA22   398 0001:0000AA2B
   399 0001:0000AA33   400 0001:0000AA3B   401 0001:0000AA44   402 0001:0000AA5C
   403 0001:0000AA6C   404 0001:0000AA79   401 0001:0000AA8A   405 0001:0000AA8F
   407 0001:0000AA97   420 0001:0000AA9C   421 0001:0000AAAE   422 0001:0000AAB6
   424 0001:0000AABC   425 0001:0000AACC   428 0001:0000AADF   429 0001:0000AAF2
   430 0001:0000AAFE   431 0001:0000AB25   449 0001:0000AB2C   450 0001:0000AB3B
   451 0001:0000AB61   453 0001:0000AB67   454 0001:0000AB6F   456 0001:0000AB98
   465 0001:0000AB9C   466 0001:0000ABAE   467 0001:0000ABBB   468 0001:0000ABE1
   478 0001:0000ABE8   479 0001:0000ABF4   480 0001:0000AC01   492 0001:0000AC08
   493 0001:0000AC11   496 0001:0000AC1A   497 0001:0000AC28   499 0001:0000AC42
   501 0001:0000AC57   502 0001:0000AC5E   508 0001:0000AC64   510 0001:0000AC9C
   504 0001:0000ACA0   505 0001:0000ACAC   507 0001:0000ACBD

Line numbers for DesignEditors(DesignEditors.pas) segment .text

    95 0001:0000ACC0   248 0001:0000B85C   270 0001:0000B978   368 0001:0000BF8C
   384 0001:0000C120   411 0001:0000C2C0   470 0001:0000C4D8   526 0001:0000C6D4
   527 0001:0000C6F0   528 0001:0000C6F4   530 0001:0000C70D   531 0001:0000C744
   532 0001:0000C75C   528 0001:0000C75F   533 0001:0000C764   534 0001:0000C788
   540 0001:0000C79C   541 0001:0000C7B7   542 0001:0000C7C8   543 0001:0000C7D6
   544 0001:0000C7E7   545 0001:0000C80B   548 0001:0000C814   549 0001:0000C825
   550 0001:0000C82E   551 0001:0000C850   554 0001:0000C854   555 0001:0000C85B
   558 0001:0000C860   559 0001:0000C869   560 0001:0000C877   569 0001:0000C87C
   570 0001:0000C89C   571 0001:0000C8AC   572 0001:0000C8BB   573 0001:0000C8D0
   574 0001:0000C8DE   575 0001:0000C8EC   576 0001:0000C8FA   578 0001:0000C906
   579 0001:0000C920   580 0001:0000C932   583 0001:0000C958   585 0001:0000C98A
   588 0001:0000C990   589 0001:0000C999   590 0001:0000C9AC   593 0001:0000C9B0
   594 0001:0000C9B9   595 0001:0000C9C7   598 0001:0000C9D0   599 0001:0000C9DC
   600 0001:0000C9EE   603 0001:0000C9F4   604 0001:0000C9FD   605 0001:0000CA0E
   608 0001:0000CA14   609 0001:0000CA20   610 0001:0000CA46   613 0001:0000CA4C
   614 0001:0000CA58   615 0001:0000CA65   618 0001:0000CA6C   619 0001:0000CA7B
   620 0001:0000CA9D   623 0001:0000CAA4   624 0001:0000CAAD   625 0001:0000CAB7
   628 0001:0000CABC   629 0001:0000CAC8   630 0001:0000CADC   633 0001:0000CAE0
   634 0001:0000CAE9   635 0001:0000CAF9   638 0001:0000CB00   639 0001:0000CB0C
   640 0001:0000CB31   643 0001:0000CB38   644 0001:0000CB44   645 0001:0000CB4C
   646 0001:0000CB55   647 0001:0000CB63   650 0001:0000CB68   651 0001:0000CB6F
   654 0001:0000CB74   655 0001:0000CB7D   656 0001:0000CB8C   659 0001:0000CB90
   660 0001:0000CB99   661 0001:0000CBAC   664 0001:0000CBB0   665 0001:0000CBBC
   666 0001:0000CBC9   669 0001:0000CBD0   670 0001:0000CBDF   671 0001:0000CC01
   674 0001:0000CC08   675 0001:0000CC14   676 0001:0000CC21   679 0001:0000CC28
   680 0001:0000CC37   681 0001:0000CC59   684 0001:0000CC60   685 0001:0000CC6C
   686 0001:0000CC79   689 0001:0000CC80   690 0001:0000CC8C   691 0001:0000CC98
   693 0001:0000CCA5   694 0001:0000CCAD   697 0001:0000CCB4   698 0001:0000CCBB
   701 0001:0000CCC0   702 0001:0000CCC7   705 0001:0000CCCC   706 0001:0000CCD3
   707 0001:0000CCDC   708 0001:0000CCE7   713 0001:0000CCEC   714 0001:0000CCF5
   715 0001:0000CD0B   714 0001:0000CD38   716 0001:0000CD3D   717 0001:0000CD45
   722 0001:0000CD4C   723 0001:0000CD58   724 0001:0000CD6E   723 0001:0000CD93
   725 0001:0000CD98   726 0001:0000CDA0   731 0001:0000CDA4   732 0001:0000CDB0
   733 0001:0000CDC6   732 0001:0000CDEB   734 0001:0000CDF0   735 0001:0000CDF8
   739 0001:0000CDFC   740 0001:0000CE0B   742 0001:0000CE1A   743 0001:0000CE22
   745 0001:0000CE2B   750 0001:0000CE34   751 0001:0000CE40   752 0001:0000CE56
   751 0001:0000CE7B   753 0001:0000CE80   754 0001:0000CE88   759 0001:0000CE8C
   760 0001:0000CE98   761 0001:0000CEAE   760 0001:0000CED3   762 0001:0000CED8
   763 0001:0000CEE0   768 0001:0000CEE4   769 0001:0000CEEE   770 0001:0000CEF7
   771 0001:0000CF0D   770 0001:0000CF35   772 0001:0000CF3A   775 0001:0000CF40
   776 0001:0000CF4C   782 0001:0000CF50   783 0001:0000CF6F   784 0001:0000CF73
   786 0001:0000CF89   789 0001:0000CFB6   790 0001:0000CFC4   791 0001:0000CFCF
   793 0001:0000CFE6   795 0001:0000CFEF   797 0001:0000CFF1   784 0001:0000CFF4
   798 0001:0000D019   801 0001:0000D020   802 0001:0000D029   803 0001:0000D03F
   806 0001:0000D044   807 0001:0000D050   808 0001:0000D07B   813 0001:0000D080
   814 0001:0000D089   815 0001:0000D09F   814 0001:0000D0C7   816 0001:0000D0CC
   817 0001:0000D0D4   820 0001:0000D0DC   821 0001:0000D0E8   822 0001:0000D0F5
   825 0001:0000D0FC   826 0001:0000D10B   827 0001:0000D12D   832 0001:0000D134
   833 0001:0000D140   834 0001:0000D156   833 0001:0000D17B   835 0001:0000D180
   836 0001:0000D188   839 0001:0000D18C   840 0001:0000D1BC   841 0001:0000D1C0
   842 0001:0000D1CE   843 0001:0000D1E4   845 0001:0000D217   846 0001:0000D229
   848 0001:0000D281   853 0001:0000D298   854 0001:0000D2A4   855 0001:0000D2A8
   856 0001:0000D2BE   855 0001:0000D2D2   857 0001:0000D2D7   858 0001:0000D2DE
   866 0001:0000D2E4   867 0001:0000D2ED   868 0001:0000D2F1   870 0001:0000D2FA
   871 0001:0000D305   872 0001:0000D31A   871 0001:0000D32D   874 0001:0000D332
   875 0001:0000D339   878 0001:0000D340   879 0001:0000D349   880 0001:0000D353
   885 0001:0000D358   886 0001:0000D364   887 0001:0000D374   888 0001:0000D37C
   890 0001:0000D392   891 0001:0000D3A2   896 0001:0000D3A8   897 0001:0000D3B4
   898 0001:0000D3D3   902 0001:0000D3D8   903 0001:0000D3E4   904 0001:0000D3F2
   905 0001:0000D402   907 0001:0000D40A   909 0001:0000D43E   911 0001:0000D47F
   912 0001:0000D4A9   913 0001:0000D4D2   914 0001:0000D4DD   921 0001:0000D4E4
   922 0001:0000D4F0   923 0001:0000D4FB   924 0001:0000D504   925 0001:0000D511
   926 0001:0000D52F   931 0001:0000D540   932 0001:0000D55F   933 0001:0000D572
   934 0001:0000D588   935 0001:0000D5B3   936 0001:0000D5CA   937 0001:0000D5DA
   938 0001:0000D5F0   939 0001:0000D627   940 0001:0000D64F   945 0001:0000D654
   946 0001:0000D65D   947 0001:0000D66B   952 0001:0000D674   953 0001:0000D680
   954 0001:0000D68B   955 0001:0000D69B   956 0001:0000D6BA   957 0001:0000D6CD
   963 0001:0000D6D4   964 0001:0000D6F6   965 0001:0000D701   967 0001:0000D70C
   969 0001:0000D715   970 0001:0000D72B   973 0001:0000D746   975 0001:0000D79E
   980 0001:0000D7A4   981 0001:0000D7B0   982 0001:0000D7C3   983 0001:0000D7D3
   984 0001:0000D7E9   985 0001:0000D800   986 0001:0000D80B  1020 0001:0000D810
  1021 0001:0000D819  1022 0001:0000D81D  1024 0001:0000D826  1025 0001:0000D834
  1026 0001:0000D849  1025 0001:0000D861  1028 0001:0000D866  1029 0001:0000D86D
  1032 0001:0000D874  1033 0001:0000D87D  1034 0001:0000D887  1037 0001:0000D88C
  1038 0001:0000D898  1039 0001:0000D8AA  1042 0001:0000D8B0  1043 0001:0000D8BC
  1044 0001:0000D8CE  1052 0001:0000D8D4  1053 0001:0000D8DD  1054 0001:0000D8E1
  1056 0001:0000D8EA  1057 0001:0000D8F6  1058 0001:0000D90B  1057 0001:0000D923
  1060 0001:0000D928  1061 0001:0000D92F  1066 0001:0000D934  1067 0001:0000D940
  1069 0001:0000D973  1072 0001:0000D978  1073 0001:0000D984  1074 0001:0000D99B
  1082 0001:0000D9A0  1083 0001:0000D9BF  1084 0001:0000D9C3  1086 0001:0000D9CC
  1087 0001:0000D9D7  1088 0001:0000D9EC  1087 0001:0000DA0A  1090 0001:0000DA0F
  1091 0001:0000DA3B  1094 0001:0000DA40  1095 0001:0000DA49  1096 0001:0000DA56
  1098 0001:0000DA6B  1099 0001:0000DA75  1102 0001:0000DA7C  1103 0001:0000DA88
  1104 0001:0000DA93  1107 0001:0000DA98  1108 0001:0000DAA4  1109 0001:0000DAAF
  1114 0001:0000DAB4  1115 0001:0000DABD  1116 0001:0000DACB  1119 0001:0000DAD4
  1120 0001:0000DADD  1121 0001:0000DAE7  1126 0001:0000DAEC  1127 0001:0000DB07
  1128 0001:0000DB18  1129 0001:0000DB24  1130 0001:0000DB4B  1133 0001:0000DB50
  1134 0001:0000DB6F  1139 0001:0000DB74  1140 0001:0000DB8F  1141 0001:0000DB9C
  1142 0001:0000DBC0  1149 0001:0000DBC8  1150 0001:0000DBD1  1151 0001:0000DBD5
  1153 0001:0000DBDE  1154 0001:0000DBE9  1155 0001:0000DBFE  1157 0001:0000DC13
  1158 0001:0000DC21  1159 0001:0000DC38  1155 0001:0000DC3B  1161 0001:0000DC40
  1162 0001:0000DC47  1165 0001:0000DC4C  1166 0001:0000DC55  1167 0001:0000DC63
  1170 0001:0000DC6C  1171 0001:0000DC78  1172 0001:0000DC98  1177 0001:0000DC9C
  1178 0001:0000DCA8  1179 0001:0000DCB3  1180 0001:0000DCD9  1183 0001:0000DCE0
  1184 0001:0000DCE7  1185 0001:0000DCF5  1186 0001:0000DD04  1191 0001:0000DD0C
  1192 0001:0000DD18  1193 0001:0000DD23  1194 0001:0000DD38  1196 0001:0000DD49
  1197 0001:0000DD58  1198 0001:0000DD63  1203 0001:0000DD68  1204 0001:0000DD71
  1205 0001:0000DD7F  1210 0001:0000DD88  1211 0001:0000DD91  1212 0001:0000DDAB
  1213 0001:0000DDC2  1212 0001:0000DDE7  1214 0001:0000DDEC  1221 0001:0000DDF4
  1222 0001:0000DE13  1223 0001:0000DE1E  1224 0001:0000DE33  1225 0001:0000DE40
  1226 0001:0000DE45  1228 0001:0000DE53  1229 0001:0000DE70  1230 0001:0000DE8C
  1225 0001:0000DE8F  1231 0001:0000DE95  1232 0001:0000DEC2  1237 0001:0000DEEC
  1238 0001:0000DEF5  1239 0001:0000DF03  1246 0001:0000DF0C  1247 0001:0000DF28
  1248 0001:0000DF45  1250 0001:0000DF5B  1251 0001:0000DF69  1252 0001:0000DF6F
  1253 0001:0000DF84  1248 0001:0000DF87  1254 0001:0000DF8C  1255 0001:0000DF98
  1256 0001:0000DFD3  1259 0001:0000DFE0  1260 0001:0000DFEC  1261 0001:0000E00E
  1268 0001:0000E024  1269 0001:0000E02D  1271 0001:0000E04B  1272 0001:0000E056
  1273 0001:0000E05C  1275 0001:0000E06C  1278 0001:0000E076  1279 0001:0000E07E
  1282 0001:0000E088  1283 0001:0000E091  1284 0001:0000E09B  1285 0001:0000E0A9
  1287 0001:0000E0B9  1288 0001:0000E0C7  1289 0001:0000E0E8  1290 0001:0000E0FA
  1295 0001:0000E110  1296 0001:0000E11C  1297 0001:0000E124  1299 0001:0000E13C
  1300 0001:0000E159  1301 0001:0000E16F  1300 0001:0000E189  1303 0001:0000E18E
  1309 0001:0000E194  1310 0001:0000E1AE  1311 0001:0000E1B9  1313 0001:0000E1BF
  1314 0001:0000E1EE  1315 0001:0000E1FC  1317 0001:0000E249  1320 0001:0000E264
  1321 0001:0000E26D  1322 0001:0000E277  1325 0001:0000E27C  1326 0001:0000E289
  1327 0001:0000E2A1  1330 0001:0000E2A8  1331 0001:0000E2AF  1332 0001:0000E2CF
  1337 0001:0000E2D4  1338 0001:0000E2E0  1339 0001:0000E2E6  1342 0001:0000E2ED
  1343 0001:0000E2FE  1344 0001:0000E319  1346 0001:0000E330  1347 0001:0000E33B
  1353 0001:0000E340  1354 0001:0000E35C  1355 0001:0000E360  1356 0001:0000E36B
  1357 0001:0000E374  1358 0001:0000E389  1359 0001:0000E399  1357 0001:0000E39C
  1360 0001:0000E3A1  1361 0001:0000E3DC  1364 0001:0000E3F0  1365 0001:0000E3F9
  1366 0001:0000E407  1369 0001:0000E40C  1370 0001:0000E418  1371 0001:0000E42E
  1379 0001:0000E434  1380 0001:0000E456  1381 0001:0000E45A  1382 0001:0000E465
  1383 0001:0000E46E  1384 0001:0000E483  1385 0001:0000E499  1383 0001:0000E49C
  1386 0001:0000E4A1  1387 0001:0000E4F4  1392 0001:0000E508  1393 0001:0000E527
  1395 0001:0000E548  1397 0001:0000E555  1398 0001:0000E57A  1401 0001:0000E590
  1402 0001:0000E5AC  1403 0001:0000E5E5  1408 0001:0000E5EC  1409 0001:0000E60E
  1410 0001:0000E616  1412 0001:0000E633  1413 0001:0000E650  1414 0001:0000E666
  1413 0001:0000E68E  1416 0001:0000E6BB  1422 0001:0000E6C0  1423 0001:0000E6E0
  1424 0001:0000E6F1  1427 0001:0000E729  1428 0001:0000E752  1431 0001:0000E758
  1432 0001:0000E75F  1433 0001:0000E76E  1434 0001:0000E77C  1436 0001:0000E7A9
  1438 0001:0000E7BC  1444 0001:0000E7C4  1445 0001:0000E7E3  1446 0001:0000E7E9
  1449 0001:0000E7F3  1450 0001:0000E804  1452 0001:0000E832  1454 0001:0000E849
  1455 0001:0000E871  1463 0001:0000E878  1464 0001:0000E881  1465 0001:0000E885
  1467 0001:0000E88E  1468 0001:0000E899  1470 0001:0000E8AE  1471 0001:0000E8BC
  1472 0001:0000E8CC  1468 0001:0000E8CF  1474 0001:0000E8D4  1475 0001:0000E8DB
  1480 0001:0000E8E0  1481 0001:0000E8FD  1482 0001:0000E901  1483 0001:0000E917
  1485 0001:0000E934  1486 0001:0000E938  1487 0001:0000E93A  1482 0001:0000E93D
  1488 0001:0000E962  1493 0001:0000E968  1494 0001:0000E984  1495 0001:0000E990
  1496 0001:0000E9A7  1497 0001:0000E9B2  1500 0001:0000E9D5  1501 0001:0000E9DB
  1502 0001:0000E9E6  1503 0001:0000E9EC  1504 0001:0000EA03  1506 0001:0000EA0E
  1507 0001:0000EA39  1510 0001:0000EA40  1511 0001:0000EA49  1512 0001:0000EA57
  1515 0001:0000EA60  1516 0001:0000EA69  1517 0001:0000EA73  1522 0001:0000EA78
  1523 0001:0000EA98  1525 0001:0000EAB6  1526 0001:0000EAC7  1527 0001:0000EADD
  1531 0001:0000EAF1  1532 0001:0000EB0B  1533 0001:0000EB1D  1534 0001:0000EB3B
  1532 0001:0000EB4E  1536 0001:0000EB54  1537 0001:0000EB5C  1538 0001:0000EB73
  1539 0001:0000EBA9  1542 0001:0000EBB0  1543 0001:0000EBBC  1544 0001:0000EBC7
  1546 0001:0000EBF5  1547 0001:0000EC07  1550 0001:0000EC0C  1551 0001:0000EC19
  1552 0001:0000EC35  1555 0001:0000EC3C  1556 0001:0000EC43  1557 0001:0000EC63
  1567 0001:0000EC68  1568 0001:0000EC91  1569 0001:0000ECA1  1571 0001:0000ECB7
  1572 0001:0000ECBD  1575 0001:0000ECF2  1576 0001:0000ECF8  1577 0001:0000ED19
  1578 0001:0000ED1F  1582 0001:0000ED6B  1588 0001:0000ED74  1589 0001:0000ED94
  1590 0001:0000EDA0  1591 0001:0000EDB7  1592 0001:0000EDC2  1594 0001:0000EE0C
  1597 0001:0000EE22  1598 0001:0000EE43  1599 0001:0000EE4E  1600 0001:0000EE7A
  1602 0001:0000EE80  1603 0001:0000EE95  1604 0001:0000EEA2  1607 0001:0000EECD
  1612 0001:0000EED4  1613 0001:0000EEDD  1614 0001:0000EEEB  1619 0001:0000EEF4
  1620 0001:0000EF00  1621 0001:0000EF0C  1622 0001:0000EF24  1623 0001:0000EF32
  1628 0001:0000EF3C  1629 0001:0000EF48  1630 0001:0000EF58  1631 0001:0000EF64
  1632 0001:0000EF76  1637 0001:0000EF7C  1638 0001:0000EF85  1639 0001:0000EF93
  1644 0001:0000EF9C  1645 0001:0000EFA8  1646 0001:0000EFB4  1647 0001:0000EFCC
  1648 0001:0000EFDA  1653 0001:0000EFE4  1654 0001:0000EFF0  1655 0001:0000F000
  1656 0001:0000F00C  1657 0001:0000F01E  1662 0001:0000F024  1663 0001:0000F02D
  1664 0001:0000F03B  1669 0001:0000F044  1670 0001:0000F050  1671 0001:0000F05C
  1672 0001:0000F074  1673 0001:0000F082  1678 0001:0000F08C  1679 0001:0000F098
  1680 0001:0000F0A8  1681 0001:0000F0B4  1682 0001:0000F0C6  1704 0001:0000F128
  1705 0001:0000F143  1706 0001:0000F15F  1707 0001:0000F16E  1708 0001:0000F17F
  1709 0001:0000F1B4  1712 0001:0000F1BC  1713 0001:0000F1CD  1714 0001:0000F1F5
  1719 0001:0000F1FC  1720 0001:0000F21E  1721 0001:0000F234  1722 0001:0000F243
  1724 0001:0000F280  1725 0001:0000F284  1726 0001:0000F286  1720 0001:0000F289
  1727 0001:0000F28E  1728 0001:0000F2B7  1731 0001:0000F2BC  1732 0001:0000F2C9
  1733 0001:0000F2CF  1734 0001:0000F2DA  1736 0001:0000F306  1739 0001:0000F30C
  1740 0001:0000F318  1741 0001:0000F32A  1746 0001:0000F330  1747 0001:0000F33C
  1748 0001:0000F34B  1747 0001:0000F371  1749 0001:0000F377  1752 0001:0000F37C
  1754 0001:0000F38A  1753 0001:0000F399  1755 0001:0000F3AF  1756 0001:0000F3C9
  1806 0001:0000F3F8  1807 0001:0000F407  1808 0001:0000F410  1809 0001:0000F421
  1810 0001:0000F434  1811 0001:0000F440  1812 0001:0000F449  1813 0001:0000F452
  1814 0001:0000F45D  1815 0001:0000F465  1816 0001:0000F479  1817 0001:0000F482
  1818 0001:0000F491  1825 0001:0000F498  1826 0001:0000F4A4  1828 0001:0000F4BC
  1829 0001:0000F4CC  1831 0001:0000F4D7  1832 0001:0000F4E5  1834 0001:0000F4E7
  1826 0001:0000F4EA  1836 0001:0000F4EF  1844 0001:0000F4F4  1845 0001:0000F514
  1847 0001:0000F51D  1848 0001:0000F535  1850 0001:0000F545  1851 0001:0000F554
  1852 0001:0000F55E  1847 0001:0000F561  1854 0001:0000F566  1855 0001:0000F570
  1856 0001:0000F575  1859 0001:0000F57F  1861 0001:0000F58F  1874 0001:0000F60C
  1877 0001:0000F677  1900 0001:0000F77C  1901 0001:0000F782  1857 0001:0000F785
  1903 0001:0000F796  1904 0001:0000F79C  1905 0001:0000F7A7  1906 0001:0000F7D7
  1922 0001:0000F7DC  1927 0001:0000F7FF  1928 0001:0000F819  1929 0001:0000F824
  1930 0001:0000F831  1932 0001:0000F843  1933 0001:0000F862  1934 0001:0000F870
  1936 0001:0000F883  1937 0001:0000F891  1938 0001:0000F89F  1939 0001:0000F8A5
  1942 0001:0000F8B5  1943 0001:0000F8C5  1944 0001:0000F8DC  1945 0001:0000F8F6
  1946 0001:0000F8FD  1947 0001:0000F903  1955 0001:0000F95C  1957 0001:0000F967
  1934 0001:0000F96A  1958 0001:0000F974  1959 0001:0000F983  1960 0001:0000F991
  1962 0001:0000F99C  1963 0001:0000F9AF  1962 0001:0000F9D9  1965 0001:0000F9DE
  1966 0001:0000F9F1  1965 0001:0000FA09  1968 0001:0000FA0E  1969 0001:0000FA21
  1968 0001:0000FA37  1972 0001:0000FA3C  1974 0001:0000FA56  1975 0001:0000FA6C
  1976 0001:0000FA76  1977 0001:0000FA88  1978 0001:0000FA9F  1979 0001:0000FAA3
  1981 0001:0000FABA  1985 0001:0000FAF9  1986 0001:0000FAFD  1988 0001:0000FAFF
  1990 0001:0000FB2B  1979 0001:0000FB2E  1991 0001:0000FB33  1993 0001:0000FB39
  1994 0001:0000FB40  1996 0001:0000FB55  1972 0001:0000FB58  1998 0001:0000FB6E
  1999 0001:0000FB9C  2002 0001:0000FBB9  2009 0001:0000FBE6  2014 0001:0000FC00
  2015 0001:0000FC09  2016 0001:0000FC12  2017 0001:0000FC23  2018 0001:0000FC30
  2019 0001:0000FC3C  2020 0001:0000FC45  2021 0001:0000FC54  2028 0001:0000FC58
  2029 0001:0000FC89  2030 0001:0000FC9A  2031 0001:0000FCA3  2032 0001:0000FCE9
  2035 0001:0000FCF0  2036 0001:0000FCF7  2037 0001:0000FD0D  2040 0001:0000FD10
  2041 0001:0000FD19  2042 0001:0000FD25  2045 0001:0000FD2C  2046 0001:0000FD38
  2047 0001:0000FD46  2050 0001:0000FD4C  2052 0001:0000FD55  2053 0001:0000FD5D
  2056 0001:0000FD64  2058 0001:0000FD73  2061 0001:0000FD78  2063 0001:0000FD84
  2066 0001:0000FD88  2068 0001:0000FD8F  2071 0001:0000FD94  2072 0001:0000FD9D
  2073 0001:0000FDB3  2077 0001:0000FDB8  2079 0001:0000FDC7  2084 0001:0000FDCC
  2085 0001:0000FDD9  2086 0001:0000FDE2  2087 0001:0000FDF3  2097 0001:0000FDF8
  2098 0001:0000FDFB  2099 0001:0000FE0F  2100 0001:0000FE31  2102 0001:0000FE34
  2103 0001:0000FE5D  2105 0001:0000FE81  2106 0001:0000FE8F  2107 0001:0000FE9A
  2108 0001:0000FEA2  2109 0001:0000FEB9  2110 0001:0000FECA  2111 0001:0000FED3
  2112 0001:0000FEE4  2113 0001:0000FEF5  2114 0001:0000FEFE  2115 0001:0000FF0F
  2116 0001:0000FF20  2117 0001:0000FF51  2122 0001:0000FFA0  2123 0001:0000FFBA
  2124 0001:0000FFD7  2125 0001:0000FFDE  2126 0001:0000FFEC  2127 0001:0000FFF7
  2128 0001:00010002  2129 0001:00010010  2130 0001:00010039  2131 0001:00010042
  2132 0001:0001004B  2133 0001:00010058  2134 0001:00010061  2136 0001:00010079
  2137 0001:00010084  2139 0001:000100BC  2157 0001:000100C4  2158 0001:000100D0
  2159 0001:000100D9  2160 0001:000100EA  2161 0001:000100F7  2162 0001:00010103
  2163 0001:0001010C  2164 0001:00010115  2165 0001:00010124  2176 0001:00010128
  2177 0001:00010137  2178 0001:0001013F  2179 0001:00010147  2180 0001:00010150
  2182 0001:00010168  2183 0001:00010178  2187 0001:000101A7  2188 0001:000101B0
  2190 0001:000101B9  2180 0001:000101BC  2191 0001:000101C1  2192 0001:000101E5
  2198 0001:000101FC  2199 0001:00010217  2200 0001:00010224  2201 0001:0001024D
  2204 0001:00010254  2206 0001:00010263  2209 0001:00010268  2211 0001:00010277
  2212 0001:0001027F  2215 0001:00010284  2217 0001:0001028D  2218 0001:00010295
  2221 0001:0001029C  2223 0001:000102A3  2227 0001:000102A8  2229 0001:000102B7
  2243 0001:000102BC  2248 0001:00010398  2249 0001:000103BA  2250 0001:000103E5
  2253 0001:000103EC  2254 0001:00010404  2255 0001:0001040E  2256 0001:00010449
  2259 0001:00010450  2260 0001:00010473  2261 0001:000104B1  2264 0001:000104C8
  2265 0001:000104D1  2266 0001:000104E2  2293 0001:000105CC  2294 0001:000105E7
  2295 0001:000105F1  2296 0001:000105FE  2297 0001:00010607  2298 0001:0001062B
  2301 0001:00010634  2302 0001:00010640  2303 0001:00010654  2317 0001:00010658
  2318 0001:00010664  2319 0001:00010675  2331 0001:0001067C  2332 0001:00010688
  2333 0001:00010691  2334 0001:000106A2  2335 0001:000106C1  2343 0001:000106C8
  2345 0001:000106EB  2346 0001:000106FA  2349 0001:00010711  2352 0001:00010721
  2355 0001:00010733  2357 0001:0001074A  2359 0001:0001075F  2360 0001:0001076E
  2358 0001:00010779  2363 0001:00010784  2355 0001:00010787  2366 0001:0001078C
  2367 0001:000107A4  2368 0001:000107BD  2366 0001:000107F8  2370 0001:0001081A
  2376 0001:00010840  2378 0001:0001085F  2379 0001:0001087C  2380 0001:00010887
  2381 0001:000108B2  2387 0001:000108B8  2388 0001:000108DB  2389 0001:000108F8
  2390 0001:00010903  2391 0001:0001092E  2396 0001:00010934  2397 0001:0001094F
  2398 0001:00010960  2399 0001:00010969  2400 0001:00010992  2403 0001:00010998
  2404 0001:000109A9  2405 0001:000109B4  2406 0001:000109D0  2409 0001:000109D4
  2411 0001:000109E0  2414 0001:000109E4  2415 0001:000109ED  2416 0001:000109F8
  2419 0001:00010A00  2421 0001:00010A0F  2422 0001:00010A17  2425 0001:00010A1C
  2427 0001:00010A25  2428 0001:00010A2D  2431 0001:00010A34  2432 0001:00010A3D
  2433 0001:00010A44  2437 0001:00010A48  2439 0001:00010A57  2442 0001:00010A5C
  2444 0001:00010A63  2447 0001:00010A68  2448 0001:00010A77  2449 0001:00010A8D
  2450 0001:00010AC6  2455 0001:00010ACC  2456 0001:00010AEE  2458 0001:00010AF7
  2459 0001:00010B00  2463 0001:00010B09  2464 0001:00010B12  2467 0001:00010B32
  2466 0001:00010B3D  2470 0001:00010B49  2471 0001:00010B9A  2474 0001:00010BA0
  2475 0001:00010BAC  2476 0001:00010BB0  2477 0001:00010BB6  2480 0001:00010BC5
  2476 0001:00010BD0  2481 0001:00010BD6  2482 0001:00010BDD  2485 0001:00010BE4
  2486 0001:00010C06  2488 0001:00010C69  2497 0001:00010C70  2498 0001:00010C74
  2499 0001:00010C7D  2500 0001:00010C8E  2501 0001:00010CA0  2502 0001:00010CB4
  2503 0001:00010CC1  2506 0001:00010CC4  2507 0001:00010CCB  2508 0001:00010CD3
  2509 0001:00010CDC  2510 0001:00010CED  2511 0001:00010CFA  2514 0001:00010D00
  2515 0001:00010D07  2516 0001:00010D10  2517 0001:00010D1D  2526 0001:00010D20
  2528 0001:00010D2A  2529 0001:00010D36  2531 0001:00010D3C  2532 0001:00010D4C
  2534 0001:00010D56  2535 0001:00010D63  2537 0001:00010D71  2529 0001:00010D74
  2540 0001:00010D7A  2541 0001:00010D86  2543 0001:00010D8C  2544 0001:00010D9C
  2546 0001:00010DA6  2547 0001:00010DB3  2549 0001:00010DC0  2541 0001:00010DC3
  2552 0001:00010DC9  2553 0001:00010DD2  2555 0001:00010DE3  2556 0001:00010DF3
  2558 0001:00010DFD  2559 0001:00010E0A  2561 0001:00010E17  2553 0001:00010E1A
  2563 0001:00010E20  2564 0001:00010E29  2566 0001:00010E3A  2567 0001:00010E4A
  2568 0001:00010E55  2569 0001:00010E62  2564 0001:00010E65  2572 0001:00010E6B
  2573 0001:00010E74  2574 0001:00010E85  2573 0001:00010E9C  2576 0001:00010EA2
  2577 0001:00010EB5  2578 0001:00010EC4  2621 0001:00011070  2622 0001:00011091
  2623 0001:00011095  2625 0001:0001109E  2626 0001:000110A9  2628 0001:000110BE
  2629 0001:000110CC  2630 0001:000110E3  2626 0001:000110E6  2632 0001:000110EB
  2633 0001:0001111A  2636 0001:00011120  2637 0001:00011129  2638 0001:00011137
  2641 0001:00011140  2642 0001:0001114C  2643 0001:00011159  2646 0001:00011170
  2647 0001:00011193  2649 0001:000111B8  2651 0001:000111DF  2653 0001:000111EE
  2655 0001:00011223  2660 0001:00011228  2661 0001:00011244  2662 0001:00011249
  2663 0001:00011256  2661 0001:00011269  2664 0001:0001126F  2665 0001:000112A2
  2672 0001:000112A8  2673 0001:000112C1  2674 0001:000112C8  2675 0001:000112CD
  2677 0001:000112E4  2678 0001:000112EA  2679 0001:000112EC  2674 0001:000112EF
  2680 0001:000112F5  2681 0001:00011318  2682 0001:0001133F  2687 0001:00011344
  2688 0001:0001136F  2689 0001:0001137A  2690 0001:00011384  2691 0001:00011394
  2692 0001:0001139E  2693 0001:000113A8  2695 0001:000113C1  2696 0001:000113CF
  2699 0001:000113EC  2700 0001:000113F4  2703 0001:00011407  2704 0001:0001142F
  2709 0001:00011438  2710 0001:00011441  2711 0001:0001144F  2714 0001:00011458
  2715 0001:0001145F  2716 0001:0001147D  2721 0001:00011484  2722 0001:000114A4
  2724 0001:000114B8  2726 0001:000114E6  2728 0001:000114FF  2730 0001:0001153F
  2734 0001:00011544  2735 0001:00011564  2736 0001:0001156F  2737 0001:0001157D
  2739 0001:00011597  2740 0001:000115C9  2747 0001:000115E0  2748 0001:00011607
  2749 0001:0001160B  2750 0001:00011611  2751 0001:00011631  2752 0001:00011637
  2753 0001:00011645  2754 0001:00011653  2755 0001:00011687  2757 0001:000116A7
  2759 0001:000116DD  2764 0001:000116E4  2765 0001:00011708  2766 0001:00011721
  2767 0001:0001172C  2768 0001:00011732  2769 0001:0001173C  2770 0001:00011758
  2771 0001:00011762  2772 0001:00011773  2773 0001:0001177E  2774 0001:000117B9
  2791 0001:00011810  2792 0001:0001181F  2793 0001:0001182B  2794 0001:0001183A
  2796 0001:00011847  2799 0001:0001184C  2800 0001:00011855  2801 0001:0001185F
  2806 0001:00011864  2807 0001:00011890  2811 0001:000118A3  2812 0001:000118AF
  2813 0001:000118CF  2814 0001:0001190F  2815 0001:0001191C  2816 0001:0001195C
  2817 0001:0001199C  2818 0001:000119DC  2819 0001:00011A1C  2820 0001:00011A29
  2825 0001:00011A6E  2826 0001:00011A7A  2827 0001:00011A8C  2828 0001:00011AC6
  2831 0001:00011BEE  2834 0001:00011BFC  2835 0001:00011C08  2836 0001:00011C12
  2839 0001:00011C18  2840 0001:00011C24  2841 0001:00011C2E  2844 0001:00011C34
  2845 0001:00011C40  2846 0001:00011C4A  2849 0001:00011C50  2850 0001:00011C5C
  2851 0001:00011C66  2854 0001:00011C6C  2855 0001:00011C78  2856 0001:00011C82
  2859 0001:00011C88  2860 0001:00011C94  2861 0001:00011C9E  2864 0001:00011CA4
  2865 0001:00011CB0  2866 0001:00011CBA  2869 0001:00011CC0  2870 0001:00011CCC
  2871 0001:00011CD6  2877 0001:00011CDC  2878 0001:00011CFB  2879 0001:00011D00
  2880 0001:00011D09  2881 0001:00011D14  2883 0001:00011D4D  2884 0001:00011D75
  2890 0001:00011D8C  2891 0001:00011DA8  2892 0001:00011DB2  2893 0001:00011DB7
  2894 0001:00011DC0  2895 0001:00011DCB  2897 0001:00011E04  2898 0001:00011E31
  2910 0001:00011E4C  2911 0001:00011E6E  2912 0001:00011E77  2913 0001:00011E80
  2914 0001:00011E89  2916 0001:00011EBC  2900 0001:00011EC0  2902 0001:00011ECC
  2903 0001:00011ED7  2904 0001:00011EE2  2905 0001:00011EED  2906 0001:00011EF8
  2908 0001:00011F03

Line numbers for LibConst(LibConst.pas) segment .text

    57 0001:00012070    57 0001:00012077

Line numbers for Update(Update.pas) segment .text

   147 0001:0001229C   154 0001:00012464   155 0001:00012470   156 0001:00012496
   168 0001:0001249C   169 0001:000124B7   170 0001:000124C5   171 0001:000124D7
   172 0001:000124E0   173 0001:000124E9   174 0001:000124F1   175 0001:00012513
   178 0001:0001251C   179 0001:0001252D   180 0001:00012538   181 0001:00012554
   184 0001:00012558   185 0001:00012561   186 0001:00012575   189 0001:0001257C
   190 0001:00012583   192 0001:00012598   193 0001:000125A8   194 0001:000125B7
   195 0001:000125BE   197 0001:000125CF   198 0001:000125D6   208 0001:000125DC
   209 0001:000125DF   210 0001:000125FF   211 0001:0001260D   212 0001:00012622
   213 0001:00012638   214 0001:00012642   215 0001:00012659   216 0001:00012667
   218 0001:00012682   219 0001:00012690   221 0001:000126A3   226 0001:000126A8
   227 0001:000126BB   228 0001:000126DB   229 0001:000126E9   230 0001:000126F7
   231 0001:00012710   234 0001:0001271C   235 0001:0001273E   232 0001:00012755
   238 0001:00012774   240 0001:000127A7   242 0001:000127AC   243 0001:000127B5
   245 0001:000127C1   246 0001:000127D0   247 0001:000127DE   248 0001:000127E5
   249 0001:000127F1   251 0001:00012805   252 0001:0001280D   255 0001:0001281C
   263 0001:00012820   264 0001:0001282F   265 0001:00012846   266 0001:00012851
   268 0001:0001285A   269 0001:00012868   271 0001:00012879   278 0001:00012880
   279 0001:00012890   281 0001:000128A2   283 0001:000128B2   284 0001:000128CB
   286 0001:000128D9   287 0001:000128FA   289 0001:00012917   298 0001:00012920
   299 0001:00012927   300 0001:00012935   301 0001:00012944   302 0001:00012952
   303 0001:00012968   304 0001:00012972   305 0001:00012989   307 0001:000129A4
   309 0001:000129B4   311 0001:000129BC   312 0001:000129CC   314 0001:000129DE
   316 0001:000129EE   318 0001:00012A09   319 0001:00012A1A   321 0001:00012A37
   324 0001:00012A40   325 0001:00012A47   352 0001:00012AAC   353 0001:00012AC8
   354 0001:00012AD1   355 0001:00012AE3   356 0001:00012AF5   357 0001:00012B10
   358 0001:00012B46   361 0001:00012B50   362 0001:00012B61   363 0001:00012B6C
   364 0001:00012B85   367 0001:00012B8C   368 0001:00012B98   369 0001:00012BAC
   372 0001:00012BB0   373 0001:00012BB9   374 0001:00012BC8   377 0001:00012BCC
   378 0001:00012BD8   379 0001:00012BEC   382 0001:00012BF0   383 0001:00012BF9
   384 0001:00012C08   387 0001:00012C0C   388 0001:00012C18   389 0001:00012C33
   392 0001:00012C38   393 0001:00012C44   394 0001:00012C5F   454 0001:00012D14
   455 0001:00012D2F   456 0001:00012D38   457 0001:00012D4D   459 0001:00012D62
   460 0001:00012D74   462 0001:00012DA1   465 0001:00012DA8   466 0001:00012DB9
   467 0001:00012DD2   470 0001:00012DD8   474 0001:00012DE4   475 0001:00012DED
   477 0001:00012E14   478 0001:00012E1F   479 0001:00012E35   482 0001:00012E3C
   486 0001:00012E48   487 0001:00012E51   488 0001:00012E63   489 0001:00012E6E
   490 0001:00012E84   495 0001:00012E88   496 0001:00012E94   497 0001:00012E9D
   498 0001:00012ED6   503 0001:00012EDC   504 0001:00012EE8   505 0001:00012EF1
   506 0001:00012F2A   509 0001:00012F30   510 0001:00012F3C   511 0001:00012F45
   512 0001:00012F61   518 0001:00012F68   519 0001:00012F78   521 0001:00012F81
   522 0001:00012F92   523 0001:00012F9D   524 0001:00012FA5   527 0001:00012FB2
   528 0001:00012FCD   527 0001:00012FE9   529 0001:00012FEE   535 0001:00012FF4
   536 0001:00013000   537 0001:00013005   538 0001:0001300E   540 0001:00013042
   541 0001:0001304E   542 0001:0001305F   543 0001:0001306B   544 0001:00013086
   543 0001:0001309F   545 0001:000130A4   550 0001:000130A8   551 0001:000130C3
   552 0001:000130CC   553 0001:000130F9   556 0001:00013100   557 0001:00013111
   558 0001:00013119   559 0001:00013132   564 0001:00013138   565 0001:00013141
   566 0001:00013171   567 0001:0001317C   573 0001:00013180   574 0001:00013190
   575 0001:00013199   576 0001:000131A2   577 0001:000131B0   578 0001:000131B6
   580 0001:000131DB   582 0001:000131EC   588 0001:000131F4   589 0001:00013200
   590 0001:00013216   591 0001:0001321B   593 0001:0001324D   595 0001:00013266
   596 0001:00013277   598 0001:00013280   599 0001:000132A1   602 0001:000132A3
   604 0001:000132C4   605 0001:000132C9   593 0001:000132CC   606 0001:000132D1
   608 0001:000132D7   609 0001:000132E9   611 0001:000132F7   612 0001:00013300
   613 0001:0001330D   614 0001:00013318   615 0001:0001332E   618 0001:00013334
   619 0001:0001333D   620 0001:0001334C   623 0001:00013350   624 0001:0001335C
   625 0001:00013370   630 0001:00013374   631 0001:00013380   632 0001:0001338B
   634 0001:00013391   635 0001:00013397   637 0001:0001339D   638 0001:000133A4
   635 0001:000133B0   642 0001:000133B8   643 0001:000133BF   664 0001:000133C4
   665 0001:000133CA   667 0001:000133EA   668 0001:000133FE   670 0001:0001340A
   671 0001:0001341B   675 0001:0001344E   676 0001:0001345F   680 0001:00013486
   665 0001:00013489   681 0001:00013492   683 0001:00013498   684 0001:000134B4
   685 0001:000134BD   686 0001:000134C6   687 0001:000134D8   688 0001:000134EA
   689 0001:000134F3   690 0001:000134FC   691 0001:00013503   692 0001:0001350A
   693 0001:00013513   694 0001:0001352D   695 0001:0001354B   696 0001:00013563
   698 0001:0001358A   699 0001:0001359E   701 0001:000135A7   702 0001:000135B6
   703 0001:000135C5   704 0001:000135E0   708 0001:000135FD   709 0001:00013609
   711 0001:00013615   712 0001:0001362E   713 0001:00013635   714 0001:0001363D
   715 0001:00013664   716 0001:0001366C   717 0001:0001368E   722 0001:00013698
   723 0001:000136A9   724 0001:000136C3   725 0001:000136CE   726 0001:000136E0
   725 0001:000136F6   727 0001:000136FC   728 0001:00013707   729 0001:00013720
   735 0001:00013724   736 0001:00013730   738 0001:0001373D   739 0001:00013742
   740 0001:00013747   741 0001:00013760   742 0001:00013777   743 0001:0001377D
   744 0001:00013786   745 0001:00013799   746 0001:000137AE   747 0001:000137B4
   750 0001:000137DF   755 0001:000137E4   756 0001:000137F0   757 0001:000137FB
   759 0001:00013805   760 0001:00013817   759 0001:00013830   761 0001:00013836
   764 0001:0001383C   765 0001:0001384B   766 0001:0001385C   767 0001:0001386A
   768 0001:00013876   771 0001:0001387C   772 0001:00013888   773 0001:0001388D
   774 0001:000138A5   775 0001:000138B3   776 0001:000138C9   777 0001:000138D2
   780 0001:000138D8   781 0001:000138E4   782 0001:00013902   787 0001:00013908
   788 0001:00013914   789 0001:0001391A   790 0001:00013938   792 0001:00013951
   793 0001:00013962   794 0001:00013978   790 0001:0001397B   795 0001:00013980
   797 0001:00013999   798 0001:000139B2   799 0001:000139B8   795 0001:000139BB
   800 0001:000139C0   801 0001:000139C8   806 0001:000139CC   807 0001:000139D8
   808 0001:000139DE   810 0001:000139F7   811 0001:00013A08   812 0001:00013A13
   808 0001:00013A16   813 0001:00013A1B   814 0001:00013A23   821 0001:00013A28
   822 0001:00013A31   823 0001:00013A35   824 0001:00013A3E   825 0001:00013A47
   827 0001:00013A4D   829 0001:00013A59   830 0001:00013A73   832 0001:00013A8E
   837 0001:00013A94   838 0001:00013ABA   839 0001:00013AC2   841 0001:00013AD8
   842 0001:00013AE9   843 0001:00013AFB   844 0001:00013B1E   846 0001:00013B68
   847 0001:00013B8E   849 0001:00013B93   850 0001:00013BC1   852 0001:00013BC6
   853 0001:00013BFB   855 0001:00013C00   856 0001:00013C35   858 0001:00013C37
   859 0001:00013C67   861 0001:00013C69   863 0001:00013C97   866 0001:00013C99
   870 0001:00013CA7   871 0001:00013CB5   839 0001:00013CB8   872 0001:00013CC2
   873 0001:00013CCA   874 0001:00013CE5   876 0001:00013D09   877 0001:00013D1D
   878 0001:00013D80   885 0001:00013D88   886 0001:00013D91   888 0001:00013DAB
   889 0001:00013DCB   890 0001:00013DD9   891 0001:00013DDE   892 0001:00013DF6
   894 0001:00013E05   895 0001:00013E19   896 0001:00013E27   898 0001:00013E3D
   899 0001:00013E44   900 0001:00013E47   891 0001:00013E4A   902 0001:00013E5C
   905 0001:00013E6C   913 0001:00013E70   914 0001:00013E7F   916 0001:00013E8E
   917 0001:00013E92   918 0001:00013EAB   919 0001:00013EB9   921 0001:00013EC7
   922 0001:00013EDC   923 0001:00013EE3   924 0001:00013EF6   926 0001:00013F04
   927 0001:00013F0A   928 0001:00013F0C   923 0001:00013F0F   929 0001:00013F14
   930 0001:00013F24   931 0001:00013F29   934 0001:00013F30   935 0001:00013F41
   938 0001:00013F53   939 0001:00013F56   936 0001:00013F68   941 0001:00013F76
   942 0001:00013F7E   932 0001:00013F81   945 0001:00013F90   947 0001:00013FAE
   952 0001:00013FC4   953 0001:00013FC8   954 0001:00013FE1   953 0001:00014001
   955 0001:00014006   957 0001:0001400D   963 0001:00014014   964 0001:00014023
   965 0001:00014027   967 0001:00014032   968 0001:00014038   974 0001:00014076
   975 0001:0001407C   977 0001:00014095   978 0001:000140B5   979 0001:000140BD
   975 0001:000140C0   981 0001:000140C8   999 0001:000140D0  1000 0001:000140D7
  1002 0001:000140E7  1004 0001:00014110  1005 0001:0001411E  1006 0001:00014123
  1008 0001:0001413B  1009 0001:00014149  1011 0001:0001414F  1012 0001:0001415D
  1013 0001:00014163  1014 0001:0001416B  1016 0001:00014176  1017 0001:00014180
  1019 0001:00014183  1006 0001:00014186  1020 0001:0001418B  1022 0001:000141A3
  1023 0001:000141B1  1024 0001:000141C9  1026 0001:000141E7  1020 0001:000141EA
  1028 0001:000141FC  1031 0001:0001420C  1033 0001:00014214  1034 0001:0001423C
  1035 0001:00014244  1036 0001:0001425B  1038 0001:00014278  1039 0001:00014289
  1040 0001:0001429F  1043 0001:000142E9  1044 0001:000142FA  1045 0001:00014311
  1049 0001:00014327  1050 0001:00014339  1051 0001:00014355  1055 0001:00014373
  1056 0001:00014384  1057 0001:000143A6  1061 0001:000143BC  1062 0001:000143CD
  1063 0001:000143EF  1066 0001:00014405  1068 0001:00014442  1071 0001:00014463
  1072 0001:00014471  1073 0001:00014477  1076 0001:00014484  1077 0001:00014492
  1078 0001:000144A5  1082 0001:000144B6  1036 0001:000144B9  1083 0001:000144C2
  1084 0001:000144CD  1085 0001:000144D4  1086 0001:000144E6  1087 0001:000144F7
  1088 0001:00014509  1089 0001:0001451A  1087 0001:00014531  1090 0001:0001456C
  1093 0001:00014570  1094 0001:00014577  1096 0001:00014580  1097 0001:0001458C
  1098 0001:000145A6  1099 0001:000145B2  1101 0001:000145CC  1137 0001:000145D0
  1138 0001:000145F4  1139 0001:000145FA  1140 0001:00014625  1141 0001:00014652
  1143 0001:00014668  1144 0001:00014699  1145 0001:000146A3  1146 0001:000146B5
  1147 0001:000146C5  1148 0001:000146CE  1149 0001:000146DF  1150 0001:000146E8
  1151 0001:000146F1  1152 0001:000146F7  1154 0001:0001471F  1155 0001:00014731
  1156 0001:00014777  1161 0001:00014780  1162 0001:00014791  1163 0001:000147AA
  1162 0001:000147C0  1164 0001:000147C5  1165 0001:000147D0  1166 0001:000147EA
  1167 0001:000147F5  1168 0001:0001480E  1173 0001:00014814  1174 0001:00014823
  1175 0001:00014827  1177 0001:00014855  1181 0001:0001485C  1182 0001:0001486B
  1184 0001:0001488C  1185 0001:0001489A  1188 0001:000148A0  1189 0001:000148A7
  1190 0001:000148AF  1191 0001:000148B7  1194 0001:000148BC  1195 0001:000148C5
  1196 0001:000148D6  1199 0001:000148DC  1200 0001:000148E5  1201 0001:000148F3
  1206 0001:000148F8  1207 0001:00014901  1208 0001:0001491A  1207 0001:00014930
  1209 0001:00014935  1212 0001:0001493C  1215 0001:00014949  1216 0001:00014953
  1218 0001:0001496E  1223 0001:00014974  1224 0001:00014983  1225 0001:00014994
  1227 0001:000149A3  1228 0001:000149AB  1229 0001:000149B9  1231 0001:000149D1
  1234 0001:000149E1  1235 0001:000149EF  1240 0001:000149F4  1241 0001:00014A03
  1242 0001:00014A1C  1241 0001:00014A38  1243 0001:00014A3D  1246 0001:00014A44
  1247 0001:00014A53  1248 0001:00014A5C  1249 0001:00014A71  1250 0001:00014A79
  1253 0001:00014A80  1254 0001:00014A8D  1256 0001:00014A96  1257 0001:00014AA4
  1259 0001:00014AB0  1269 0001:00014AB8  1270 0001:00014ABB  1271 0001:00014AD6
  1273 0001:00014ADF  1274 0001:00014AFC  1275 0001:00014B0F  1276 0001:00014B21
  1278 0001:00014B2C  1280 0001:00014B35  1281 0001:00014B52  1284 0001:00014B65
  1287 0001:00014B68  1288 0001:00014B6B  1289 0001:00014B7F  1290 0001:00014B8A
  1291 0001:00014B95  1292 0001:00014BA0  1295 0001:00014BA4  1296 0001:00014BA7
  1297 0001:00014BBB  1303 0001:00014BC0  1304 0001:00014BCF  1305 0001:00014BD9
  1306 0001:00014BE6  1307 0001:00014BFD  1308 0001:00014C08  1309 0001:00014C15
  1310 0001:00014C20  1311 0001:00014C35  1312 0001:00014C43  1313 0001:00014C52
  1315 0001:00014C58  1318 0001:00014C60  1316 0001:00014C6F  1319 0001:00014C7E
  1320 0001:00014C84  1322 0001:00014C90  1323 0001:00014C95  1324 0001:00014CA1
  1325 0001:00014CBF  1326 0001:00014CC5  1327 0001:00014CD8  1328 0001:00014CE6
  1329 0001:00014CF0  1330 0001:00014D06  1331 0001:00014D14  1333 0001:00014D2F
  1335 0001:00014D3F  1336 0001:00014D60  1338 0001:00014D80  1339 0001:00014D88
  1341 0001:00014D95  1346 0001:00014D9C  1349 0001:00014DA8  1351 0001:00014DBA
  1352 0001:00014DC4  1354 0001:00014DE1  1355 0001:00014DFC  1354 0001:00014E1F
  1357 0001:00014E24  1360 0001:00014E28  1361 0001:00014E2B  1362 0001:00014E33
  1363 0001:00014E3B  1364 0001:00014E43  1365 0001:00014E51  1366 0001:00014E6D
  1368 0001:00014E84  1370 0001:00014E96  1373 0001:00014E98  1374 0001:00014E9B
  1375 0001:00014EBC  1378 0001:00014EC0  1379 0001:00014EC3  1380 0001:00014ED7
  1386 0001:00014EDC  1387 0001:00014EF8  1388 0001:00014F00  1389 0001:00014F15
  1390 0001:00014F23  1392 0001:00014F58  1393 0001:00014F74  1388 0001:00014F77
  1394 0001:00014F7D  1395 0001:00014F8B  1396 0001:00014FC2  1398 0001:00014FCC
  1399 0001:00014FD5  1400 0001:00014FE2  1401 0001:00014FFB  1402 0001:00015014
  1403 0001:0001501B  1404 0001:00015026  1405 0001:00015034  1406 0001:00015042
  1407 0001:0001504A  1408 0001:00015058  1410 0001:00015061  1411 0001:00015072
  1412 0001:00015080  1413 0001:0001508E  1414 0001:0001509C  1415 0001:000150A3
  1416 0001:000150AA  1418 0001:000150BE  1420 0001:000150CE  1422 0001:000150DC
  1424 0001:000150F1  1427 0001:0001510E  1430 0001:0001512A  1432 0001:00015139
  1435 0001:00015140  1436 0001:00015147  1437 0001:00015150  1438 0001:00015165
  1439 0001:0001517A  1440 0001:00015181  1441 0001:0001518F  1443 0001:000151B0
  1445 0001:000151BF  1450 0001:000151C4  1451 0001:000151D0  1452 0001:000151E4
  1454 0001:000151FD  1455 0001:00015203  1456 0001:0001521C  1452 0001:0001521F
  1457 0001:00015227  1460 0001:0001522C  1461 0001:00015235  1462 0001:0001523E
  1465 0001:00015244  1466 0001:0001524C  1467 0001:00015262  1468 0001:00015280
  1471 0001:00015284  1472 0001:0001528C  1473 0001:000152A2  1474 0001:000152C0
  1477 0001:000152C4  1478 0001:000152CD  1479 0001:000152D9  1482 0001:000152E0
  1483 0001:000152E9  1484 0001:000152F5  1486 0001:0001532C  1486 0001:00015333

Line numbers for ToolUtils(ToolUtils.pas) segment .text

    19 0001:00015370    35 0001:00015464    36 0001:0001547C    37 0001:00015486
    38 0001:000154A6    39 0001:000154CA    42 0001:000154D0    43 0001:000154DC
    44 0001:000154F2    45 0001:000154FB    46 0001:00015501    47 0001:0001550A
    48 0001:00015550    49 0001:00015558    52 0001:0001555C    53 0001:0001558F
    54 0001:000155D7    57 0001:000155EC    58 0001:000155F5    59 0001:000155FE
    64 0001:00015604    65 0001:0001562C    66 0001:00015644    68 0001:00015658
    69 0001:00015666    70 0001:0001566C    71 0001:0001566E    65 0001:00015671
    72 0001:00015676    73 0001:000156AC    80 0001:000156B4    81 0001:000156D4
    82 0001:000156E1    84 0001:000156F9    85 0001:00015707    86 0001:00015719
    87 0001:00015721    82 0001:00015724    88 0001:00015746    90 0001:00015780
    90 0001:00015787

Line numbers for Events(Events.pas) segment .text

    28 0001:000157FC    29 0001:00015814    30 0001:0001581E    31 0001:0001584B
    36 0001:00015850    37 0001:00015861    38 0001:0001587A    37 0001:00015895
    39 0001:0001589A    40 0001:000158A5    41 0001:000158C1    46 0001:000158C8
    47 0001:000158D1    49 0001:000158E3    50 0001:000158F0    51 0001:000158FE
    53 0001:0001590C    63 0001:00015914    64 0001:0001591D    66 0001:00015936
    67 0001:0001594F    70 0001:0001595F    71 0001:00015965    73 0001:00015967
    64 0001:0001596A    74 0001:0001596F    75 0001:00015979    80 0001:00015980
    81 0001:00015989    82 0001:0001599A    84 0001:000159A0    85 0001:000159B8
    87 0001:000159C6    92 0001:000159CC    93 0001:000159D9    94 0001:000159EB
    93 0001:00015A06    95 0001:00015A0C    97 0001:00015A44    97 0001:00015A4B

Line numbers for EditIntf(EditIntf.pas) segment .text

   584 0001:00016714   584 0001:0001671B

Line numbers for TreeIntf(TreeIntf.pas) segment .text

   492 0001:00017C6C   493 0001:00017C78   494 0001:00017C81   495 0001:00017C92
   496 0001:00017CA2   499 0001:00017CA8   500 0001:00017CB4   501 0001:00017CBD
   502 0001:00017CCE   503 0001:00017CDE   507 0001:00017CE4   508 0001:00017CED
   509 0001:00017D01   513 0001:00017D08   514 0001:00017D14   515 0001:00017D19
   517 0001:00017D22   518 0001:00017D32   519 0001:00017D47   521 0001:00017D4F
   524 0001:00017D54   525 0001:00017D60   526 0001:00017D69   527 0001:00017D7A
   528 0001:00017D8A   531 0001:00017D90   532 0001:00017D9C   533 0001:00017DA5
   534 0001:00017DB6   535 0001:00017DC6   539 0001:00017DCC   540 0001:00017DD5
   541 0001:00017DE9   545 0001:00017DF0   546 0001:00017DFC   547 0001:00017E01
   549 0001:00017E0A   550 0001:00017E1A   551 0001:00017E2F   553 0001:00017E37
   556 0001:00017E3C   557 0001:00017E43   558 0001:00017E4C   559 0001:00017E59
   560 0001:00017E62   561 0001:00017E6F   566 0001:00017E74   567 0001:00017E7B
   568 0001:00017E82   569 0001:00017E8A   570 0001:00017E92   573 0001:00017E98
   574 0001:00017EA4   575 0001:00017EAD   576 0001:00017EB8   579 0001:00017EBC
   580 0001:00017ECD   581 0001:00017ED8   582 0001:00017EF4   585 0001:00017EF8
   586 0001:00017EFF   587 0001:00017F05   590 0001:00017F08   591 0001:00017F0F
   592 0001:00017F15   593 0001:00017F27   594 0001:00017F2F   599 0001:00017F34
   600 0001:00017F3D   602 0001:00017F4F   603 0001:00017F61   602 0001:00017F79
   604 0001:00017F7F   607 0001:00017F88   608 0001:00017F8F   611 0001:00017F94
   612 0001:00017FA0   613 0001:00017FA9   615 0001:00017FBB   617 0001:00017FCC
   618 0001:00017FDA   620 0001:00017FE5   625 0001:00017FEC   626 0001:00017FF8
   628 0001:00018001   629 0001:00018012   631 0001:00018018   632 0001:00018026
   634 0001:00018031   636 0001:00018046   638 0001:00018051   643 0001:00018058
   645 0001:00018064   650 0001:00018086   653 0001:0001809B   654 0001:000180A3
   658 0001:000180B4   659 0001:000180BD   662 0001:000180CF   665 0001:000180DD
   668 0001:000180E6   670 0001:000180EF   673 0001:000180FB   674 0001:00018104
   678 0001:00018112   691 0001:0001811C   692 0001:00018125   697 0001:0001812C
   698 0001:0001814B   699 0001:0001814F   701 0001:00018163   702 0001:00018188
   705 0001:000181D4   708 0001:000181DC   709 0001:000181FE   710 0001:0001821C
   711 0001:0001822B   712 0001:0001828C   718 0001:000182A0   719 0001:000182AF
   722 0001:000182B7   723 0001:000182BD   724 0001:000182CE   723 0001:000182E5
   727 0001:000182EB   729 0001:000182F4   730 0001:000182FD   731 0001:00018305
   732 0001:0001830F   733 0001:00018323   735 0001:0001832B   738 0001:00018330
   739 0001:00018337   740 0001:00018343   745 0001:00018348   746 0001:00018351
   747 0001:00018362   749 0001:00018370   750 0001:00018378   752 0001:00018399
   753 0001:000183A1   746 0001:000183A4   754 0001:000183AA   757 0001:000183B0
   758 0001:000183B9   759 0001:000183BE   760 0001:000183C7   761 0001:000183D6
   766 0001:000183DC   767 0001:000183F7   768 0001:00018401   769 0001:0001840A
   770 0001:0001841A   771 0001:0001842A   772 0001:00018461   775 0001:00018468
   777 0001:00018479   780 0001:00018481   783 0001:00018489   786 0001:00018495
   787 0001:000184AA   788 0001:000184BB   791 0001:000184C3   794 0001:000184CE
   793 0001:000184DE   795 0001:000184EA   799 0001:000184F5   800 0001:00018511
   803 0001:00018518   804 0001:00018521   805 0001:0001852A   807 0001:0001853A
   808 0001:00018548   811 0001:0001854C   812 0001:00018558   813 0001:0001855C
   814 0001:00018562   815 0001:00018576   820 0001:0001857C   821 0001:0001859E
   822 0001:000185A2   825 0001:000185C1   826 0001:000185E6   828 0001:000185EC
   829 0001:000185FE   831 0001:00018612   832 0001:00018628   835 0001:00018651
   838 0001:0001865C   839 0001:00018668   840 0001:0001866C   841 0001:00018672
   842 0001:00018686   847 0001:0001868C   848 0001:000186AE   849 0001:000186B2
   851 0001:000186C6   852 0001:000186EB   853 0001:000186F1   856 0001:0001874E
   859 0001:00018758   860 0001:00018768   861 0001:0001877C   867 0001:00018784
   868 0001:00018794   869 0001:00018799   870 0001:0001879F   871 0001:000187AA
   873 0001:000187B2   875 0001:000187CA   876 0001:000187D8   878 0001:000187E3
   879 0001:000187E9   881 0001:000187EB   883 0001:000187F1   884 0001:00018801
   887 0001:00018807   873 0001:0001880A   888 0001:00018812   891 0001:00018818
   892 0001:00018828   893 0001:0001883F   896 0001:00018844   897 0001:00018854
   898 0001:0001886C   904 0001:00018874   905 0001:000188A0   906 0001:000188A5
   909 0001:000188AF   911 0001:000188B9   912 0001:000188D3   914 0001:000188DE
   916 0001:000188FA   917 0001:00018908   919 0001:00018922   920 0001:00018928
   922 0001:0001892D   924 0001:00018933   925 0001:00018945   928 0001:0001894F
   914 0001:00018952   934 0001:0001895C   936 0001:00018988   938 0001:00018993
   940 0001:000189AB   941 0001:000189B9   944 0001:000189E5   945 0001:000189EB
   947 0001:000189ED   949 0001:000189F3   950 0001:00018A06   953 0001:00018A0C
   938 0001:00018A0F   956 0001:00018A39   959 0001:00018A40   960 0001:00018A50
   961 0001:00018A64   967 0001:00018A6C   968 0001:00018A92   969 0001:00018A97
   970 0001:00018AA1   971 0001:00018ABB   973 0001:00018AC3   975 0001:00018ADB
   976 0001:00018AE9   978 0001:00018B03   979 0001:00018B09   981 0001:00018B0B
   983 0001:00018B11   984 0001:00018B21   987 0001:00018B27   973 0001:00018B2A
   988 0001:00018B54   993 0001:00018B5C   994 0001:00018B65   996 0001:00018B6E
   997 0001:00018B75   998 0001:00018B7E   999 0001:00018B8F   998 0001:00018BAE
  1000 0001:00018BB4  1001 0001:00018BBB  1003 0001:00018BC4  1006 0001:00018BCC
  1007 0001:00018BD8  1008 0001:00018BDD  1009 0001:00018BE6  1010 0001:00018BFA
  1013 0001:00018C00  1014 0001:00018C0C  1015 0001:00018C14  1018 0001:00018C18
  1019 0001:00018C21  1020 0001:00018C28  1021 0001:00018C31  1022 0001:00018C45
  1025 0001:00018C4C  1026 0001:00018C58  1027 0001:00018C5F  1028 0001:00018C68
  1029 0001:00018C7C  1032 0001:00018C80  1033 0001:00018C8D  1034 0001:00018C95
  1035 0001:00018C9E  1036 0001:00018CB0  1039 0001:00018CB8  1040 0001:00018CC4
  1041 0001:00018CCF  1044 0001:00018CD4  1046 0001:00018CE0  1049 0001:00018CE4
  1050 0001:00018CF3  1051 0001:00018CF8  1053 0001:00018CFE  1055 0001:00018D15
  1057 0001:00018D20  1058 0001:00018D2C  1060 0001:00018D42  1062 0001:00018D48
  1063 0001:00018D51  1064 0001:00018D65  1065 0001:00018D6B  1069 0001:00018D76
  1070 0001:00018D82  1073 0001:00018D88  1074 0001:00018DAB  1075 0001:00018DB0
  1077 0001:00018DBA  1079 0001:00018DE0  1081 0001:00018DEB  1082 0001:00018DF7
  1084 0001:00018E0D  1086 0001:00018E13  1087 0001:00018E1C  1088 0001:00018E30
  1089 0001:00018E36  1093 0001:00018E41  1094 0001:00018E6A  1098 0001:00018E70
  1099 0001:00018E93  1100 0001:00018E9C  1103 0001:00018EB0  1107 0001:00018EF7
  1109 0001:00018F02  1110 0001:00018F0E  1112 0001:00018F28  1114 0001:00018F2E
  1115 0001:00018F37  1116 0001:00018F4F  1117 0001:00018F55  1121 0001:00018F60
  1122 0001:00018F89  1125 0001:00018F90  1126 0001:00018F99  1127 0001:00018FA0
  1136 0001:00018FA4  1137 0001:00018FC3  1139 0001:00018FCC  1140 0001:00018FD4
  1141 0001:00018FD9  1142 0001:00018FE2  1143 0001:00018FEE  1148 0001:00019031
  1149 0001:0001905A  1153 0001:00019060  1154 0001:0001907F  1155 0001:0001908C
  1157 0001:000190B4  1158 0001:000190DC  1159 0001:000190F0  1160 0001:0001910B
  1161 0001:00019118  1163 0001:00019121  1164 0001:0001913C  1165 0001:00019162
  1166 0001:00019170  1167 0001:00019182  1168 0001:00019194  1171 0001:000191C8
  1174 0001:000191CC  1175 0001:000191F8  1176 0001:00019203  1178 0001:00019209
  1179 0001:00019211  1180 0001:0001921E  1182 0001:00019255  1184 0001:00019262
  1185 0001:00019268  1186 0001:000192A1  1187 0001:000192AA  1189 0001:00019321
  1192 0001:00019354  1193 0001:00019363  1194 0001:00019367  1195 0001:0001936D
  1196 0001:00019382  1201 0001:00019388  1202 0001:000193AE  1203 0001:000193B2
  1205 0001:000193C4  1206 0001:000193EB  1207 0001:000193F1  1210 0001:0001944E
  1213 0001:00019458  1214 0001:0001947A  1215 0001:00019485  1216 0001:0001948E
  1217 0001:000194F8  1222 0001:0001950C  1223 0001:00019515  1224 0001:0001952E
  1227 0001:00019534  1228 0001:0001953D  1229 0001:00019544  1232 0001:00019548
  1233 0001:00019551  1234 0001:00019556  1235 0001:0001955F  1236 0001:00019570
  1239 0001:00019574  1240 0001:00019580  1241 0001:00019588  1247 0001:0001958C
  1249 0001:000195AC  1252 0001:000195B1  1256 0001:000195BE  1258 0001:000195D2
  1259 0001:000195F7  1260 0001:000195FD  1264 0001:00019614  1266 0001:0001962F
  1270 0001:00019641  1271 0001:00019647  1272 0001:0001965E  1273 0001:0001966A
  1275 0001:0001967C  1276 0001:000196AC  1285 0001:000196B8  1287 0001:000196D4
  1289 0001:000196EE  1292 0001:000196F5  1295 0001:00019718  1299 0001:0001972F
  1300 0001:00019747  1305 0001:00019765  1306 0001:00019775  1308 0001:0001977B
  1309 0001:00019791  1311 0001:00019797  1312 0001:000197A5  1313 0001:000197BD
  1316 0001:000197C6  1320 0001:000197D1  1295 0001:000197D4  1322 0001:000197DD
  1325 0001:000197E8  1326 0001:000197F1  1327 0001:000197FA  1329 0001:00019809
  1330 0001:0001981A  1333 0001:00019820  1334 0001:00019825  1336 0001:0001984B
  1339 0001:00019854  1340 0001:0001985B  1342 0001:00019873  1343 0001:00019882
  1345 0001:00019898  1346 0001:000198A9  1349 0001:000198AC  1350 0001:000198B5
  1351 0001:000198BC  1354 0001:000198C0  1355 0001:000198C9  1356 0001:000198D1
  1359 0001:000198D8  1361 0001:000198DF  1364 0001:000198E4  1365 0001:000198ED
  1366 0001:000198FB  1371 0001:00019900  1372 0001:00019909  1373 0001:0001991A
  1372 0001:00019930  1374 0001:00019936  1377 0001:0001993C  1378 0001:00019945
  1379 0001:0001994C  1382 0001:00019950  1383 0001:0001995C  1385 0001:00019967
  1386 0001:00019970  1388 0001:00019982  1390 0001:0001998F  1395 0001:00019994
  1396 0001:0001999D  1398 0001:000199A6  1401 0001:000199AD  1402 0001:000199B6
  1405 0001:000199C4  1406 0001:000199CC  1407 0001:000199DD  1406 0001:000199F0
  1409 0001:000199F6  1412 0001:000199FC  1413 0001:00019A0C  1414 0001:00019A15
  1415 0001:00019A2A  1418 0001:00019A34  1420 0001:00019A40  1421 0001:00019A4A
  1422 0001:00019A53  1424 0001:00019A62  1427 0001:00019A68  1428 0001:00019A6F
  1429 0001:00019A78  1430 0001:00019A83  1433 0001:00019A88  1434 0001:00019A8F
  1435 0001:00019A98  1436 0001:00019AA3  1439 0001:00019AA8  1440 0001:00019ABF
  1441 0001:00019AC8  1443 0001:00019AE2  1444 0001:00019AE9  1447 0001:00019AF0
  1448 0001:00019AF9  1449 0001:00019B02  1450 0001:00019B0E  1451 0001:00019B15
  1454 0001:00019B1C  1455 0001:00019B28  1456 0001:00019B31  1461 0001:00019B38
  1462 0001:00019B41  1463 0001:00019B59  1469 0001:00019B60  1470 0001:00019B80
  1471 0001:00019B85  1473 0001:00019BA3  1474 0001:00019BAE  1475 0001:00019BBA
  1477 0001:00019BCA  1478 0001:00019BD6  1480 0001:00019BFE  1481 0001:00019C37
  1484 0001:00019C3C  1485 0001:00019C43  1486 0001:00019C4C  1487 0001:00019C57
  1490 0001:00019C5C  1491 0001:00019C63  1492 0001:00019C6C  1493 0001:00019C77
  1496 0001:00019C7C  1497 0001:00019C83  1498 0001:00019C8C  1499 0001:00019C97
  1504 0001:00019C9C  1505 0001:00019CB8  1508 0001:00019CD7  1509 0001:00019CDE
  1512 0001:00019D11  1513 0001:00019D3A  1516 0001:00019D40  1517 0001:00019D49
  1518 0001:00019D57  1523 0001:00019D5C  1524 0001:00019D69  1526 0001:00019DA5
  1528 0001:00019DAF  1529 0001:00019DB4  1530 0001:00019DC9  1531 0001:00019DEF
  1532 0001:00019E17  1533 0001:00019E3B  1535 0001:00019E5C  1540 0001:00019E64
  1541 0001:00019E71  1542 0001:00019E79  1543 0001:00019E87  1544 0001:00019E8D
  1546 0001:00019EB3  1547 0001:00019ED7  1548 0001:00019EE8  1549 0001:00019EEE
  1551 0001:00019F13  1553 0001:00019F26  1556 0001:00019F2C  1558 0001:00019F38
  1561 0001:00019F3C  1562 0001:00019F45  1563 0001:00019F4D  1566 0001:00019F54
  1567 0001:00019F5D  1568 0001:00019F71  1571 0001:00019F78  1572 0001:00019F87
  1573 0001:00019F8F  1576 0001:00019F94  1577 0001:00019F9D  1578 0001:00019FA5
  1581 0001:00019FAC  1582 0001:00019FB8  1584 0001:00019FE4  1589 0001:00019FE8
  1590 0001:00019FF4  1591 0001:00019FFD  1592 0001:0001A00B  1595 0001:0001A010
  1596 0001:0001A019  1597 0001:0001A020  1604 0001:0001A024  1605 0001:0001A033
  1606 0001:0001A039  1607 0001:0001A03D  1608 0001:0001A041  1609 0001:0001A045
  1611 0001:0001A062  1612 0001:0001A078  1616 0001:0001A07E  1619 0001:0001A09D
  1621 0001:0001A0B6  1624 0001:0001A0BC  1626 0001:0001A0C2  1629 0001:0001A0C6
  1609 0001:0001A0C9  1631 0001:0001A0CE  1632 0001:0001A0D4  1633 0001:0001A0DA
  1634 0001:0001A0E0  1635 0001:0001A0E8  1636 0001:0001A0EE  1637 0001:0001A0F4
  1645 0001:0001A0F8  1646 0001:0001A101  1647 0001:0001A105  1648 0001:0001A10C
  1650 0001:0001A12C  1651 0001:0001A145  1653 0001:0001A14B  1654 0001:0001A15C
  1655 0001:0001A165  1657 0001:0001A16D  1648 0001:0001A170  1658 0001:0001A178
  1665 0001:0001A17C  1666 0001:0001A19C  1667 0001:0001A1A0  1671 0001:0001A1C2
  1673 0001:0001A1D3  1676 0001:0001A1E1  1677 0001:0001A1E7  1680 0001:0001A1F4
  1681 0001:0001A204  1685 0001:0001A20A  1686 0001:0001A217  1687 0001:0001A21D
  1689 0001:0001A22C  1691 0001:0001A246  1694 0001:0001A250  1698 0001:0001A256
  1699 0001:0001A262  1702 0001:0001A272  1704 0001:0001A2A0  1711 0001:0001A2B8
  1712 0001:0001A2D4  1713 0001:0001A2DE  1715 0001:0001A2FC  1717 0001:0001A308
  1720 0001:0001A318  1721 0001:0001A326  1722 0001:0001A32C  1723 0001:0001A33C
  1724 0001:0001A342  1726 0001:0001A373  1729 0001:0001A398  1730 0001:0001A3A4
  1733 0001:0001A3E2  1734 0001:0001A3E8  1735 0001:0001A402  1740 0001:0001A408
  1741 0001:0001A414  1743 0001:0001A441  1748 0001:0001A448  1749 0001:0001A454
  1751 0001:0001A481  1756 0001:0001A488  1757 0001:0001A494  1758 0001:0001A4A3
  1759 0001:0001A4B1  1764 0001:0001A4B8  1765 0001:0001A4C1  1766 0001:0001A4C6
  1767 0001:0001A4D5  1768 0001:0001A4E6  1773 0001:0001A4EC  1774 0001:0001A4FC
  1775 0001:0001A504  1776 0001:0001A513  1777 0001:0001A521  1782 0001:0001A528
  1783 0001:0001A531  1785 0001:0001A55B  1788 0001:0001A560  1789 0001:0001A57B
  1790 0001:0001A588  1791 0001:0001A591  1792 0001:0001A5A3  1793 0001:0001A5B5
  1794 0001:0001A5C7  1795 0001:0001A5E9  1800 0001:0001A5F0  1804 0001:0001A5F7
  1807 0001:0001A5FC  1808 0001:0001A60D  1809 0001:0001A617  1810 0001:0001A625
  1811 0001:0001A630  1812 0001:0001A63B  1813 0001:0001A654  1816 0001:0001A658
  1818 0001:0001A65F  1821 0001:0001A664  1822 0001:0001A673  1823 0001:0001A67E
  1824 0001:0001A686  1825 0001:0001A68C  1827 0001:0001A69E  1828 0001:0001A6B2
  1833 0001:0001A6B8  1834 0001:0001A6D4  1837 0001:0001A738  1840 0001:0001A73C
  1841 0001:0001A74B  1842 0001:0001A759  1845 0001:0001A764  1846 0001:0001A769
  1847 0001:0001A782  1849 0001:0001A79B  1850 0001:0001A7AC  1851 0001:0001A7AE
  1846 0001:0001A7B1  1852 0001:0001A7B6  1854 0001:0001A7BC  1855 0001:0001A7D1
  1856 0001:0001A7D7  1859 0001:0001A7E8  1865 0001:0001A7F0  1866 0001:0001A816
  1867 0001:0001A830  1870 0001:0001A83B  1871 0001:0001A840  1872 0001:0001A859
  1874 0001:0001A87E  1875 0001:0001A88F  1876 0001:0001A891  1871 0001:0001A894
  1877 0001:0001A899  1879 0001:0001A89F  1880 0001:0001A8B0  1881 0001:0001A8B6
  1884 0001:0001A8E9  1891 0001:0001A8F0  1892 0001:0001A916  1894 0001:0001A92C
  1895 0001:0001A932  1896 0001:0001A93A  1897 0001:0001A942  1898 0001:0001A954
  1897 0001:0001A968  1899 0001:0001A96D  1901 0001:0001A99D  1904 0001:0001A9A4
  1905 0001:0001A9B3  1906 0001:0001A9BA  1909 0001:0001A9C0  1910 0001:0001A9CC
  1911 0001:0001A9D5  1912 0001:0001A9E3  1913 0001:0001A9F1  1914 0001:0001A9FF
  1919 0001:0001AA04  1920 0001:0001AA10  1924 0001:0001AA19  1925 0001:0001AA22
  1926 0001:0001AA2D  1929 0001:0001AA4D  1931 0001:0001AA58  1940 0001:0001AA5C
  1942 0001:0001AA65  1945 0001:0001AA6E  1948 0001:0001AA7C  1949 0001:0001AA85
  1953 0001:0001AA96  1954 0001:0001AAA7  1953 0001:0001AABF  1957 0001:0001AAC5
  1958 0001:0001AACE  1959 0001:0001AAD6  1975 0001:0001AADC  1977 0001:0001AAE5
  1978 0001:0001AAE9  1980 0001:0001AAF6  1981 0001:0001AAFE  1982 0001:0001AB05
  1983 0001:0001AB14  1986 0001:0001AB22  1987 0001:0001AB2B  1989 0001:0001AB43
  1990 0001:0001AB51  1993 0001:0001AB6C  1994 0001:0001AB81  1987 0001:0001AB84
  1997 0001:0001AB89  2000 0001:0001AB93  2004 0001:0001ABA9  2007 0001:0001ABC7
  2009 0001:0001ABCD  2010 0001:0001ABE5  2013 0001:0001ABEE  2014 0001:0001ABF9
  2016 0001:0001ABFD  2000 0001:0001AC00  2020 0001:0001AC05  2021 0001:0001AC0C
  2022 0001:0001AC21  2025 0001:0001AC2A  2028 0001:0001AC32  2032 0001:0001AC46
  2033 0001:0001AC4E  2034 0001:0001AC55  2035 0001:0001AC5C  2038 0001:0001AC6F
  2043 0001:0001AC74  2044 0001:0001AC90  2045 0001:0001ACA6  2046 0001:0001ACCB
  2049 0001:0001ACD0  2052 0001:0001ACDC  2053 0001:0001ACEE  2055 0001:0001ACF6
  2058 0001:0001ACFC  2061 0001:0001AD08  2062 0001:0001AD13  2064 0001:0001AD1E
  2070 0001:0001AD24  2071 0001:0001AD2B  2073 0001:0001AD31  2074 0001:0001AD3D
  2075 0001:0001AD47  2077 0001:0001AD59  2078 0001:0001AD5C  2079 0001:0001AD68
  2090 0001:0001AD71  2092 0001:0001AD82  2094 0001:0001AD8F  2097 0001:0001AD94
  2098 0001:0001ADA0  2102 0001:0001ADD5  2105 0001:0001ADDC  2106 0001:0001ADE3
  2107 0001:0001ADEF  2108 0001:0001AE04  2111 0001:0001AE08  2114 0001:0001AE14
  2117 0001:0001AE49  2119 0001:0001AE51  2122 0001:0001AE58  2123 0001:0001AE5F
  2124 0001:0001AE67  2125 0001:0001AE70  2126 0001:0001AE78  2127 0001:0001AE84
  2128 0001:0001AE9E  2129 0001:0001AEA6  2132 0001:0001AEAC  2133 0001:0001AEC3
  2134 0001:0001AED1  2135 0001:0001AEDE  2140 0001:0001AEE4  2141 0001:0001AEF0
  2142 0001:0001AF00  2146 0001:0001AF17  2147 0001:0001AF1F  2149 0001:0001AF26
  2152 0001:0001AF2C  2153 0001:0001AF33  2154 0001:0001AF3A  2157 0001:0001AF40
  2158 0001:0001AF4C  2159 0001:0001AF52  2160 0001:0001AF59  2162 0001:0001AF62
  2163 0001:0001AF6D  2164 0001:0001AF7B  2166 0001:0001AF90  2169 0001:0001AFA3
  2172 0001:0001AFA8  2173 0001:0001AFB4  2174 0001:0001AFC8  2177 0001:0001AFCC
  2178 0001:0001AFD3  2179 0001:0001AFD9  2182 0001:0001AFDC  2183 0001:0001AFE3
  2185 0001:0001AFEC  2186 0001:0001AFF2  2188 0001:0001B004  2189 0001:0001B010
  2190 0001:0001B023  2193 0001:0001B02A  2196 0001:0001B030  2197 0001:0001B037
  2199 0001:0001B049  2200 0001:0001B055  2201 0001:0001B068  2203 0001:0001B06F
  2208 0001:0001B074  2209 0001:0001B093  2212 0001:0001B09C  2213 0001:0001B0B1
  2214 0001:0001B0BF  2215 0001:0001B0CA  2218 0001:0001B0D4  2219 0001:0001B0E2
  2220 0001:0001B0EA  2221 0001:0001B0F1  2222 0001:0001B0FA  2223 0001:0001B11F
  2226 0001:0001B124  2227 0001:0001B12D  2228 0001:0001B132  2229 0001:0001B13B
  2230 0001:0001B14C  2235 0001:0001B150  2236 0001:0001B16B  2237 0001:0001B175
  2238 0001:0001B17E  2239 0001:0001B187  2240 0001:0001B1AF  2243 0001:0001B1B8
  2244 0001:0001B1C4  2245 0001:0001B1CB  2246 0001:0001B1DD  2247 0001:0001B1F1
  2253 0001:0001B1F8  2254 0001:0001B213  2255 0001:0001B21D  2256 0001:0001B231
  2257 0001:0001B23A  2258 0001:0001B262  2263 0001:0001B268  2264 0001:0001B274
  2265 0001:0001B28F  2267 0001:0001B2A9  2268 0001:0001B2AD  2269 0001:0001B2AF
  2264 0001:0001B2B2  2270 0001:0001B2B7  2271 0001:0001B2BE  2276 0001:0001B2C4
  2277 0001:0001B2D3  2278 0001:0001B2F5  2282 0001:0001B2FC  2283 0001:0001B30B
  2284 0001:0001B32D  2287 0001:0001B334  2288 0001:0001B33B  2289 0001:0001B343
  2290 0001:0001B34B  2293 0001:0001B350  2294 0001:0001B368  2295 0001:0001B372
  2296 0001:0001B384  2297 0001:0001B3B1  2300 0001:0001B3B8  2301 0001:0001B3C9
  2302 0001:0001B3D4  2303 0001:0001B3DF  2304 0001:0001B3FB  2309 0001:0001B400
  2310 0001:0001B40C  2311 0001:0001B414  2312 0001:0001B426  2313 0001:0001B43C
  2311 0001:0001B44D  2314 0001:0001B453  2315 0001:0001B465  2316 0001:0001B47B
  2314 0001:0001B48C  2317 0001:0001B492  2320 0001:0001B498  2321 0001:0001B4A4
  2322 0001:0001B4B2  2323 0001:0001B4B8  2324 0001:0001B4C9  2327 0001:0001B4D0
  2328 0001:0001B4DC  2329 0001:0001B4E1  2330 0001:0001B4EC  2331 0001:0001B4F8
  2336 0001:0001B4FC  2337 0001:0001B508  2338 0001:0001B50D  2339 0001:0001B526
  2341 0001:0001B540  2342 0001:0001B554  2343 0001:0001B556  2338 0001:0001B559
  2344 0001:0001B55E  2346 0001:0001B564  2347 0001:0001B56B  2349 0001:0001B584
  2350 0001:0001B59D  2352 0001:0001B5A5  2353 0001:0001B5AB  2355 0001:0001B5BF
  2347 0001:0001B5C2  2357 0001:0001B5C7  2359 0001:0001B5CD  2360 0001:0001B5D6
  2362 0001:0001B5E2  2367 0001:0001B5E8  2368 0001:0001B5F4  2369 0001:0001B602
  2372 0001:0001B608  2373 0001:0001B623  2374 0001:0001B630  2375 0001:0001B65D
  2378 0001:0001B664  2379 0001:0001B675  2380 0001:0001B680  2381 0001:0001B69C
  2384 0001:0001B6A0  2385 0001:0001B6AC  2386 0001:0001B6C0  2389 0001:0001B6C4
  2390 0001:0001B6CD  2391 0001:0001B6DC  2396 0001:0001B6E0  2397 0001:0001B6E9
  2398 0001:0001B6F0  2401 0001:0001B6F4  2402 0001:0001B6FD  2403 0001:0001B704
  2408 0001:0001B708  2409 0001:0001B711  2410 0001:0001B718  2413 0001:0001B71C
  2414 0001:0001B725  2415 0001:0001B736  2416 0001:0001B73C  2417 0001:0001B74A
  2420 0001:0001B750  2421 0001:0001B75C  2422 0001:0001B772  2425 0001:0001B778
  2426 0001:0001B77F  2427 0001:0001B792  2430 0001:0001B798  2431 0001:0001B7A1
  2432 0001:0001B7A8  2435 0001:0001B7AC  2436 0001:0001B7B8  2437 0001:0001B7D8
  2440 0001:0001B7F4  2441 0001:0001B80F  2442 0001:0001B81C  2443 0001:0001B844
  2446 0001:0001B848  2447 0001:0001B855  2448 0001:0001B872  2451 0001:0001B878
  2452 0001:0001B881  2453 0001:0001B88B  2459 0001:0001B898  2460 0001:0001B8A7
  2461 0001:0001B8AF  2463 0001:0001B8BC  2466 0001:0001B8C0  2467 0001:0001B8C9
  2468 0001:0001B8D5  2476 0001:0001B8DC  2478 0001:0001B8E5  2481 0001:0001B8ED
  2485 0001:0001B908  2486 0001:0001B919  2489 0001:0001B929  2491 0001:0001B92F
  2492 0001:0001B945  2494 0001:0001B94B  2495 0001:0001B959  2498 0001:0001B962
  2501 0001:0001B96D  2481 0001:0001B970  2502 0001:0001B975  2507 0001:0001B97C
  2508 0001:0001B983  2509 0001:0001B996  2512 0001:0001B99C  2513 0001:0001B9A8
  2514 0001:0001B9B6  2517 0001:0001B9BC  2518 0001:0001B9C5  2519 0001:0001B9D6
  2524 0001:0001B9DC  2525 0001:0001B9E8  2526 0001:0001B9F6  2527 0001:0001BA04
  2528 0001:0001BA1C  2529 0001:0001BA31  2532 0001:0001BA38  2533 0001:0001BA44
  2534 0001:0001BA57  2537 0001:0001BA5C  2538 0001:0001BA65  2539 0001:0001BA6C
  2542 0001:0001BA70  2543 0001:0001BA7C  2544 0001:0001BA8D  2547 0001:0001BA94
  2548 0001:0001BA9D  2549 0001:0001BAB1  2552 0001:0001BAB8  2553 0001:0001BAC8
  2554 0001:0001BAD9  2557 0001:0001BAE0  2558 0001:0001BAE9  2559 0001:0001BAF5
  2562 0001:0001BAFC  2563 0001:0001BB05  2564 0001:0001BB0C  2571 0001:0001BB10
  2572 0001:0001BB1C  2573 0001:0001BB26  2574 0001:0001BB38  2575 0001:0001BB54
  2576 0001:0001BB75  2577 0001:0001BB8E  2575 0001:0001BB91  2578 0001:0001BB96
  2579 0001:0001BBAC  2582 0001:0001BBB0  2583 0001:0001BBC8  2584 0001:0001BBD2
  2585 0001:0001BBE4  2586 0001:0001BC0F  2589 0001:0001BC14  2590 0001:0001BC25
  2591 0001:0001BC30  2592 0001:0001BC4C  2597 0001:0001BC50  2598 0001:0001BC5C
  2599 0001:0001BC61  2600 0001:0001BC69  2601 0001:0001BC7B  2602 0001:0001BC9C
  2604 0001:0001BCBA  2605 0001:0001BCD3  2606 0001:0001BCD5  2601 0001:0001BCD8
  2607 0001:0001BCE0  2612 0001:0001BCE4  2613 0001:0001BCF0  2614 0001:0001BCFA
  2616 0001:0001BD10  2617 0001:0001BD31  2619 0001:0001BD4C  2620 0001:0001BD62
  2621 0001:0001BD64  2616 0001:0001BD67  2622 0001:0001BD6C  2623 0001:0001BD80
  2625 0001:0001BD90  2630 0001:0001BD94  2631 0001:0001BDA5  2632 0001:0001BDAE
  2633 0001:0001BDBD  2634 0001:0001BDD9  2639 0001:0001BDE0  2640 0001:0001BDFB
  2641 0001:0001BE08  2642 0001:0001BE30  2645 0001:0001BE34  2646 0001:0001BE50
  2647 0001:0001BE5D  2648 0001:0001BE81  2659 0001:0001BE90  2660 0001:0001BE99
  2661 0001:0001BEA5  2664 0001:0001BEAC  2665 0001:0001BECB  2667 0001:0001BED4
  2668 0001:0001BEE5  2669 0001:0001BEED  2672 0001:0001BF21  2673 0001:0001BF49
  2678 0001:0001BF50  2679 0001:0001BF59  2680 0001:0001BF60  2685 0001:0001BF64
  2686 0001:0001BF6D  2687 0001:0001BF74  2692 0001:0001BF78  2693 0001:0001BF93
  2694 0001:0001BFA0  2695 0001:0001BFC8  2700 0001:0001BFCC  2701 0001:0001BFE7
  2702 0001:0001BFF4  2703 0001:0001C01C  2712 0001:0001C020  2713 0001:0001C024
  2714 0001:0001C02D  2715 0001:0001C03E  2716 0001:0001C049  2722 0001:0001C04C
  2723 0001:0001C064  2724 0001:0001C06E  2725 0001:0001C09D  2731 0001:0001C0A4
  2732 0001:0001C0B3  2734 0001:0001C0B9  2735 0001:0001C0C7  2737 0001:0001C0DC
  2738 0001:0001C0EA  2739 0001:0001C0F5  2740 0001:0001C0FF  2743 0001:0001C107
  2750 0001:0001C10C  2751 0001:0001C11B  2753 0001:0001C121  2754 0001:0001C12F
  2756 0001:0001C141  2757 0001:0001C151  2758 0001:0001C15F  2759 0001:0001C16D
  2762 0001:0001C17E  2765 0001:0001C184  2766 0001:0001C195  2767 0001:0001C1A0
  2768 0001:0001C1BC  2774 0001:0001C1C0  2775 0001:0001C1CF  2776 0001:0001C1FD
  2777 0001:0001C203  2778 0001:0001C20E  2784 0001:0001C214  2785 0001:0001C223
  2786 0001:0001C235  2787 0001:0001C240  2793 0001:0001C244  2794 0001:0001C253
  2795 0001:0001C265  2796 0001:0001C26D  2801 0001:0001C274  2802 0001:0001C280
  2803 0001:0001C292  2804 0001:0001C29C  2810 0001:0001C2A0  2811 0001:0001C2C3
  2812 0001:0001C2CD  2813 0001:0001C2D7  2814 0001:0001C2F6  2806 0001:0001C2F8
  2807 0001:0001C304  2809 0001:0001C30E

Line numbers for TopLevels(TopLevels.pas) segment .text

   223 0001:0001C37C   224 0001:0001C398   225 0001:0001C39D   227 0001:0001C3B7
   228 0001:0001C3D5   229 0001:0001C3DB   225 0001:0001C3DE   230 0001:0001C403
   233 0001:0001C408   234 0001:0001C411   235 0001:0001C41F   247 0001:0001C424
   248 0001:0001C42A   249 0001:0001C431   252 0001:0001C44D   253 0001:0001C458
   255 0001:0001C468   256 0001:0001C471   259 0001:0001C479   264 0001:0001C480
   265 0001:0001C489   266 0001:0001C48F   267 0001:0001C494   268 0001:0001C4A2
   269 0001:0001C4AB   272 0001:0001C4B0   273 0001:0001C4B7   278 0001:0001C4BC
   279 0001:0001C4D8   280 0001:0001C4F2   281 0001:0001C511   279 0001:0001C514
   282 0001:0001C536   287 0001:0001C53C   288 0001:0001C55C   289 0001:0001C564
   291 0001:0001C57E   292 0001:0001C59C   294 0001:0001C5A4   289 0001:0001C5A7
   295 0001:0001C5C9   300 0001:0001C5D0   301 0001:0001C5EC   302 0001:0001C5F0
   303 0001:0001C60A   304 0001:0001C629   302 0001:0001C62C   305 0001:0001C631
   306 0001:0001C655   310 0001:0001C65C   311 0001:0001C663   312 0001:0001C670
   315 0001:0001C674   316 0001:0001C67B   317 0001:0001C688   319 0001:0001C6BC
   320 0001:0001C6C8   322 0001:0001C6D9

Line numbers for ComponentDesigner(ComponentDesigner.pas) segment .text

   561 0001:0001D09C   606 0001:0001D2C8   625 0001:0001D4D4  1026 0001:0001D99C
  1166 0001:0001DE2C  1194 0001:0001E038  1206 0001:0001E144  1232 0001:0001E270
  1254 0001:0001E4B8  1375 0001:0001E7A4  1386 0001:0001E8AC  1387 0001:0001E8C8
  1388 0001:0001E8DA  1387 0001:0001E8F0  1389 0001:0001E8F5  1394 0001:0001E8FC
  1395 0001:0001E905  1396 0001:0001E909  1397 0001:0001E90F  1398 0001:0001E927
  1397 0001:0001E945  1399 0001:0001E94A  1400 0001:0001E951  1941 0001:0001E958
  1942 0001:0001E964  1943 0001:0001E96F  1963 0001:0001E974  1964 0001:0001E97B
  1965 0001:0001E984  1969 0001:0001E9A3  1993 0001:0001E9B0  1998 0001:0001E9B4
  1999 0001:0001E9D1  2003 0001:0001E9E4  2005 0001:0001E9FC  1999 0001:0001EA0C
  2018 0001:0001EA2F  2043 0001:0001EA94  2044 0001:0001EAAF  2045 0001:0001EAB9
  2046 0001:0001EAC2  2047 0001:0001EACB  2048 0001:0001EAEF  2051 0001:0001EAF8
  2052 0001:0001EB07  2053 0001:0001EB26  2060 0001:0001EB2C  2062 0001:0001EB3B
  2063 0001:0001EB5E  2064 0001:0001EB66  2070 0001:0001EB6C  2071 0001:0001EB75
  2073 0001:0001EB86  2074 0001:0001EB96  2076 0001:0001EBA1  2077 0001:0001EBAE
  2079 0001:0001EBB6  2071 0001:0001EBB9  2080 0001:0001EBBF  2088 0001:0001EBC4
  2089 0001:0001EBD0  2090 0001:0001EBD4  2091 0001:0001EBE1  2093 0001:0001EBF9
  2094 0001:0001EC07  2095 0001:0001EC16  2091 0001:0001EC19  2096 0001:0001EC1E
  2097 0001:0001EC25  2100 0001:0001EC2C  2101 0001:0001EC38  2102 0001:0001EC4E
  2103 0001:0001EC64  2116 0001:0001EC68  2117 0001:0001EC75  2118 0001:0001EC90
  2119 0001:0001ECAF  2120 0001:0001ECDF  2122 0001:0001ECE4  2123 0001:0001ED0F
  2124 0001:0001ED24  2125 0001:0001ED39  2126 0001:0001ED4E  2127 0001:0001ED74
  2128 0001:0001ED89  2129 0001:0001EDAF  2130 0001:0001EDBD  2131 0001:0001EDD6
  2132 0001:0001EDE4  2133 0001:0001EDF3  2134 0001:0001EDF9  2136 0001:0001EE1B
  2139 0001:0001EE3A  2140 0001:0001EE4B  2142 0001:0001EE55  2144 0001:0001EE6F
  2145 0001:0001EE80  2146 0001:0001EE8F  2147 0001:0001EEA0  2148 0001:0001EEAD
  2149 0001:0001EEEE  2207 0001:0001EF34  2210 0001:0001F084  2211 0001:0001F0A1
  2212 0001:0001F0AB  2213 0001:0001F0C3  2214 0001:0001F0D1  2215 0001:0001F0DB
  2216 0001:0001F100  2219 0001:0001F108  2220 0001:0001F119  2221 0001:0001F13D
  2222 0001:0001F158  2225 0001:0001F160  2226 0001:0001F169  2227 0001:0001F175
  2230 0001:0001F17C  2231 0001:0001F185  2232 0001:0001F191  2235 0001:0001F198
  2236 0001:0001F1A1  2237 0001:0001F1B3  2240 0001:0001F1B8  2241 0001:0001F1C1
  2242 0001:0001F1D3  2245 0001:0001F1D8  2246 0001:0001F1E4  2247 0001:0001F207
  2250 0001:0001F20C  2251 0001:0001F218  2252 0001:0001F23B  2255 0001:0001F240
  2256 0001:0001F24C  2257 0001:0001F26D  2260 0001:0001F274  2261 0001:0001F280
  2262 0001:0001F2A1  2265 0001:0001F2A8  2266 0001:0001F2B6  2267 0001:0001F2C5
  2270 0001:0001F2CC  2271 0001:0001F2DA  2272 0001:0001F2E8  2273 0001:0001F303
  2276 0001:0001F30C  2277 0001:0001F32E  2278 0001:0001F342  2280 0001:0001F372
  2281 0001:0001F3A2  2286 0001:0001F3A8  2287 0001:0001F3B1  2289 0001:0001F3BA
  2290 0001:0001F3C8  2291 0001:0001F3D1  2293 0001:0001F3DA  2296 0001:0001F3E0
  2297 0001:0001F3E9  2298 0001:0001F3F2  2299 0001:0001F3FA  2300 0001:0001F406
  2303 0001:0001F40C  2304 0001:0001F415  2305 0001:0001F41E  2306 0001:0001F426
  2307 0001:0001F432  2318 0001:0001F4A0  2319 0001:0001F4AC  2320 0001:0001F4B7
  2330 0001:0001F4BC  2333 0001:0001F574  2334 0001:0001F58F  2335 0001:0001F599
  2336 0001:0001F5BD  2340 0001:0001F5C4  2341 0001:0001F5D3  2342 0001:0001F5E7
  2372 0001:0001F6D4  2373 0001:0001F6E0  2374 0001:0001F6EF  2375 0001:0001F6FA
  2378 0001:0001F700  2379 0001:0001F71C  2380 0001:0001F726  2381 0001:0001F732
  2382 0001:0001F768  2385 0001:0001F770  2386 0001:0001F77C  2387 0001:0001F783
  2394 0001:0001F788  2395 0001:0001F794  2396 0001:0001F79C  2397 0001:0001F7A5
  2398 0001:0001F7BA  2399 0001:0001F7CF  2398 0001:0001F7F7  2400 0001:0001F7FC
  2403 0001:0001F80C  2404 0001:0001F818  2406 0001:0001F83B  2411 0001:0001F840
  2412 0001:0001F84C  2413 0001:0001F85E  2414 0001:0001F86C  2416 0001:0001F884
  2418 0001:0001F894  2428 0001:0001F8C4  2429 0001:0001F8E7  2430 0001:0001F903
  2431 0001:0001F919  2433 0001:0001F923  2434 0001:0001F93D  2435 0001:0001F94F
  2437 0001:0001F962  2438 0001:0001F96E  2440 0001:0001F97A  2441 0001:0001F988
  2442 0001:0001F98E  2444 0001:0001F99C  2435 0001:0001F99F  2446 0001:0001F9C7
  2449 0001:0001F9CC  2451 0001:0001F9D5  2450 0001:0001F9F5  2452 0001:0001FA04
  2457 0001:0001FA08  2458 0001:0001FA11  2459 0001:0001FA1B  2460 0001:0001FA37
  2459 0001:0001FA59  2461 0001:0001FA5E  2462 0001:0001FA6C  2473 0001:0001FA70
  2474 0001:0001FA90  2475 0001:0001FAAC  2477 0001:0001FAB6  2478 0001:0001FAC4
  2479 0001:0001FAD2  2480 0001:0001FAEC  2482 0001:0001FAFF  2483 0001:0001FB13
  2485 0001:0001FB3E  2486 0001:0001FB51  2480 0001:0001FB54  2488 0001:0001FB66
  2491 0001:0001FB7C  2493 0001:0001FBA0  2494 0001:0001FBBA  2495 0001:0001FBC5
  2496 0001:0001FBD7  2497 0001:0001FBE5  2499 0001:0001FC0A  2503 0001:0001FC14
  2504 0001:0001FC20  2505 0001:0001FC30  2506 0001:0001FC44  2505 0001:0001FC5F
  2507 0001:0001FC65  2515 0001:0001FC6C  2516 0001:0001FC78  2517 0001:0001FC87
  2520 0001:0001FC99  2521 0001:0001FC9E  2522 0001:0001FCAB  2524 0001:0001FCC3
  2525 0001:0001FCD1  2527 0001:0001FCDA  2528 0001:0001FCED  2530 0001:0001FCF3
  2522 0001:0001FCF6  2532 0001:0001FCFE  2534 0001:0001FD04  2535 0001:0001FD10
  2536 0001:0001FD19  2537 0001:0001FD1F  2538 0001:0001FD35  2541 0001:0001FD3C
  2542 0001:0001FD4E  2543 0001:0001FD5C  2544 0001:0001FD74  2545 0001:0001FDAD
  2547 0001:0001FDC5  2548 0001:0001FDFE  2550 0001:0001FE18  2551 0001:0001FE20
  2553 0001:0001FE2A  2554 0001:0001FE37  2557 0001:0001FE40  2558 0001:0001FE4D
  2559 0001:0001FE65  2560 0001:0001FE70  2564 0001:0001FE78  2565 0001:0001FE87
  2566 0001:0001FE96  2567 0001:0001FE9E  2568 0001:0001FEB1  2576 0001:0001FEB8
  2577 0001:0001FEC4  2578 0001:0001FECC  2579 0001:0001FEE2  2584 0001:0001FEF4
  2585 0001:0001FF0C  2586 0001:0001FF45  2587 0001:0001FF51  2588 0001:0001FF6D
  2589 0001:0001FF8E  2590 0001:0001FFB3  2591 0001:0001FFFF  2596 0001:00020024
  2597 0001:0002005B  2598 0001:00020065  2599 0001:00020078  2600 0001:00020088
  2601 0001:00020096  2602 0001:0002009A  2603 0001:000200C2  2604 0001:000200D0
  2605 0001:000200DE  2606 0001:000200EC  2607 0001:00020113  2608 0001:00020126
  2609 0001:0002013E  2610 0001:00020153  2611 0001:00020168  2612 0001:0002017D
  2613 0001:00020192  2614 0001:000201B2  2615 0001:000201BC  2616 0001:000201C4
  2617 0001:000201C9  2618 0001:000201D7  2620 0001:000201E3  2622 0001:000201E9
  2623 0001:000201FB  2626 0001:0002020E  2627 0001:0002022D  2629 0001:00020250
  2632 0001:0002025D  2633 0001:00020264  2635 0001:00020286  2636 0001:0002028A
  2638 0001:000202A1  2640 0001:000202B1  2641 0001:000202B9  2643 0001:000202D6
  2645 0001:000202DC  2646 0001:000202E6  2648 0001:000202F0  2649 0001:00020318
  2650 0001:00020323  2652 0001:00020375  2655 0001:000203A0  2656 0001:000203C2
  2657 0001:00020401  2691 0001:00020408  2699 0001:0002042D  2700 0001:00020432
  2701 0001:00020437  2702 0001:00020445  2703 0001:00020455  2704 0001:00020463
  2705 0001:00020475  2706 0001:00020489  2707 0001:00020499  2708 0001:000204A1
  2710 0001:000204B5  2711 0001:000204C0  2712 0001:000204C8  2713 0001:000204D0
  2716 0001:000204E7  2717 0001:000204F7  2719 0001:00020526  2722 0001:00020530
  2723 0001:00020553  2724 0001:0002055E  2725 0001:0002056C  2726 0001:000205B0
  2733 0001:000205B8  2734 0001:000205E0  2735 0001:000205EA  2736 0001:000205FB
  2737 0001:00020604  2738 0001:00020612  2739 0001:00020620  2740 0001:0002062F
  2741 0001:0002063C  2742 0001:0002064C  2743 0001:00020655  2744 0001:00020699
  2745 0001:000206A1  2747 0001:000206AE  2748 0001:000206BC  2749 0001:000206C7
  2751 0001:000206EF  2752 0001:000206F9  2753 0001:00020708  2754 0001:00020716
  2755 0001:0002072D  2756 0001:0002073B  2757 0001:0002074B  2759 0001:00020765
  2761 0001:00020775  2762 0001:00020781  2763 0001:00020791  2765 0001:000207AB
  2766 0001:000207B5  2770 0001:000207C5  2772 0001:000207FC  2773 0001:00020804
  2774 0001:0002080C  2776 0001:00020843  2779 0001:0002086C  2780 0001:0002087D
  2781 0001:00020888  2782 0001:00020893  2783 0001:000208A1  2784 0001:000208AF
  2785 0001:000208BD  2786 0001:000208CB  2787 0001:000208D9  2788 0001:000208E7
  2789 0001:000208F5  2790 0001:00020911  2793 0001:00020918  2794 0001:0002091F
  2795 0001:00020927  2796 0001:00020933  2797 0001:00020941  2800 0001:00020944
  2801 0001:00020950  2802 0001:00020959  2803 0001:00020967  2816 0001:0002096C
  2817 0001:000209C4  2818 0001:000209CF  2819 0001:000209D4  2821 0001:000209DE
  2822 0001:000209E8  2823 0001:000209F6  2824 0001:00020A0E  2826 0001:00020A34
  2829 0001:00020A3A  2830 0001:00020A44  2831 0001:00020A52  2832 0001:00020A5D
  2834 0001:00020A75  2835 0001:00020AB4  2836 0001:00020AC5  2837 0001:00020AE6
  2839 0001:00020AEC  2840 0001:00020AF7  2843 0001:00020B08  2845 0001:00020B13
  2846 0001:00020B1C  2849 0001:00020B25  2851 0001:00020B30  2852 0001:00020B4C
  2853 0001:00020B68  2855 0001:00020B8E  2856 0001:00020B97  2859 0001:00020BA0
  2860 0001:00020BA4  2863 0001:00020BB9  2864 0001:00020BBD  2866 0001:00020BD9
  2867 0001:00020C0D  2869 0001:00020C1D  2870 0001:00020C21  2871 0001:00020C35
  2872 0001:00020C5B  2873 0001:00020C72  2875 0001:00020C74  2864 0001:00020C77
  2861 0001:00020C80  2879 0001:00020C8A  2880 0001:00020CCD  2882 0001:00020CE3
  2884 0001:00020CEE  2886 0001:00020D04  2887 0001:00020D0D  2891 0001:00020D13
  2892 0001:00020D1F  2896 0001:00020D2B  2897 0001:00020D36  2899 0001:00020D46
  2900 0001:00020D51  2903 0001:00020D68  2904 0001:00020D70  2905 0001:00020D75
  2908 0001:00020D8C  2910 0001:00020D9E  2911 0001:00020DAB  2912 0001:00020DB6
  2913 0001:00020DBE  2915 0001:00020E22  2918 0001:00020E3C  2919 0001:00020E5F
  2920 0001:00020E74  2923 0001:00020E7E  2924 0001:00020E8F  2925 0001:00020E97
  2927 0001:00020EE5  2932 0001:00020EEC  2933 0001:00020EFE  2934 0001:00020F0F
  2935 0001:00020F1E  2937 0001:00020F3E  2938 0001:00020F46  2941 0001:00020F4C
  2942 0001:00020F68  2943 0001:00020F9E  2946 0001:00020FA4  2947 0001:00020FC4
  2948 0001:00020FD2  2950 0001:00020FF5  2951 0001:00021020  2957 0001:00021028
  2958 0001:0002104E  2960 0001:0002107B  2962 0001:00021093  2963 0001:000210A1
  2964 0001:000210AF  2960 0001:000210B2  2965 0001:000210B7  2967 0001:000210C4
  2966 0001:000210DC  2968 0001:000210F2  2969 0001:000210FA  2970 0001:0002112D
  2974 0001:00021144  2975 0001:00021153  2977 0001:00021169  2978 0001:0002117C
  2980 0001:00021182  2986 0001:00021188  2987 0001:000211A5  2988 0001:000211B8
  2989 0001:000211C6  2990 0001:000211D4  2991 0001:000211F2  2992 0001:00021206
  2993 0001:00021234  2991 0001:00021248  2995 0001:0002125B  2997 0001:000212A1
  3000 0001:000212A8  3001 0001:000212B7  3002 0001:000212DB  3010 0001:000212E0
  3011 0001:000212E9  3012 0001:000212F4  3014 0001:0002130C  3015 0001:0002131A
  3016 0001:00021323  3017 0001:00021333  3012 0001:00021336  3018 0001:0002133E
  3020 0001:00021344  3021 0001:0002134D  3022 0001:00021360  3025 0001:00021364
  3026 0001:00021387  3027 0001:000213E7  3035 0001:000213FC  3036 0001:0002140B
  3037 0001:0002141A  3040 0001:00021437  3041 0001:0002143F  3042 0001:0002144C
  3044 0001:00021464  3045 0001:00021472  3047 0001:0002147B  3048 0001:0002148E
  3050 0001:00021496  3051 0001:000214B5  3054 0001:000214B7  3042 0001:000214BA
  3056 0001:000214BF  3058 0001:000214C4  3059 0001:000214E7  3060 0001:000214ED
  3062 0001:0002150D  3063 0001:0002153B  3068 0001:00021540  3069 0001:00021563
  3070 0001:00021584  3071 0001:0002158A  3072 0001:0002159A  3073 0001:000215C7
  3078 0001:000215DC  3079 0001:000215FF  3080 0001:00021620  3081 0001:00021626
  3082 0001:00021636  3083 0001:00021663  3092 0001:00021678  3093 0001:0002169E
  3094 0001:000216A6  3095 0001:000216B1  3096 0001:000216BF  3097 0001:000216D6
  3098 0001:000216E4  3099 0001:000216EC  3100 0001:000216FA  3101 0001:00021710
  3102 0001:0002172E  3103 0001:0002174B  3105 0001:00021765  3108 0001:00021782
  3110 0001:000217BA  3115 0001:000217D4  3116 0001:000217F0  3117 0001:000217F8
  3118 0001:00021814  3117 0001:00021847  3119 0001:00021869  3124 0001:00021880
  3125 0001:0002189C  3126 0001:000218AA  3127 0001:000218C6  3126 0001:000218F9
  3128 0001:0002191B  3131 0001:00021934  3132 0001:00021940  3133 0001:00021948
  3134 0001:0002195C  3136 0001:00021966  3137 0001:00021974  3140 0001:00021988
  3141 0001:00021994  3142 0001:000219A5  3145 0001:000219AC  3146 0001:000219B8
  3147 0001:000219C6  3150 0001:000219CC  3151 0001:000219D8  3153 0001:000219E4
  3154 0001:000219FC  3156 0001:00021A19  3157 0001:00021A31  3160 0001:00021A38
  3161 0001:00021A44  3162 0001:00021A52  3165 0001:00021A58  3166 0001:00021A64
  3167 0001:00021A72  3174 0001:00021A78  3175 0001:00021A7E  3176 0001:00021A8F
  3177 0001:00021A9F  3179 0001:00021AD2  3180 0001:00021ADB  3181 0001:00021ADD
  3175 0001:00021AE0  3182 0001:00021AE6  3183 0001:00021B15  3185 0001:00021B1C
  3186 0001:00021B25  3187 0001:00021B2E  3188 0001:00021B3B  3189 0001:00021B47
  3192 0001:00021B4C  3193 0001:00021B58  3194 0001:00021B61  3195 0001:00021B74
  3196 0001:00021B82  3199 0001:00021B88  3200 0001:00021B94  3201 0001:00021BA0
  3204 0001:00021BB1  3206 0001:00021BC1  3207 0001:00021BDB  3208 0001:00021BE6
  3209 0001:00021BF3  3210 0001:00021C07  3211 0001:00021C12  3212 0001:00021C27
  3213 0001:00021C35  3215 0001:00021C55  3216 0001:00021C62  3219 0001:00021C6C
  3221 0001:00021C78  3222 0001:00021C87  3225 0001:00021C90  3226 0001:00021CAD
  3227 0001:00021CBE  3228 0001:00021CCC  3229 0001:00021CD7  3230 0001:00021CF6
  3232 0001:00021D0F  3233 0001:00021D1C  3235 0001:00021D26  3236 0001:00021D76
  3239 0001:00021D90  3240 0001:00021D99  3241 0001:00021DAA  3244 0001:00021DB0
  3245 0001:00021DBC  3246 0001:00021DD6  3258 0001:00021DDC  3259 0001:00021DE6
  3260 0001:00021DEA  3261 0001:00021DF3  3262 0001:00021E0F  3264 0001:00021E19
  3265 0001:00021E27  3266 0001:00021E35  3267 0001:00021E4F  3269 0001:00021E66
  3270 0001:00021E72  3272 0001:00021E7E  3273 0001:00021E81  3274 0001:00021E83
  3275 0001:00021E86  3276 0001:00021E89  3277 0001:00021E8C  3278 0001:00021E8F
  3280 0001:00021E94  3282 0001:00021EB1  3283 0001:00021EC5  3284 0001:00021EDD
  3286 0001:00021EED  3287 0001:00021EFD  3267 0001:00021F00  3289 0001:00021F16
  3291 0001:00021F26  3293 0001:00021F3C  3294 0001:00021F4B  3295 0001:00021F59
  3296 0001:00021F77  3297 0001:00021F8D  3296 0001:00021FA5  3299 0001:00021FB7
  3303 0001:00021FCA  3307 0001:00021FD4  3308 0001:00021FE0  3309 0001:00021FFB
  3308 0001:00022013  3310 0001:00022018  3317 0001:0002201C  3318 0001:0002203F
  3319 0001:0002204E  3320 0001:0002205C  3321 0001:00022067  3322 0001:0002207F
  3321 0001:000220AA  3324 0001:000220BC  3326 0001:000220F1  3331 0001:000220F8
  3332 0001:00022118  3333 0001:00022121  3334 0001:0002212C  3335 0001:00022147
  3336 0001:00022168  3334 0001:00022173  3337 0001:0002219D  3340 0001:000221B4
  3341 0001:000221CE  3342 0001:000221DA  3343 0001:000221E8  3344 0001:000221F3
  3345 0001:00022200  3346 0001:00022228  3347 0001:00022230  3348 0001:00022239
  3349 0001:00022244  3350 0001:00022260  3351 0001:0002226D  3352 0001:00022279
  3353 0001:00022281  3354 0001:00022296  3355 0001:000222A1  3356 0001:000222A6
  3357 0001:000222AF  3358 0001:000222DF  3362 0001:000222F4  3363 0001:00022303
  3364 0001:0002230D  3365 0001:0002231E  3366 0001:00022332  3367 0001:0002233A
  3370 0001:00022340  3371 0001:00022352  3372 0001:00022363  3374 0001:0002236F
  3375 0001:00022375  3376 0001:0002237B  3380 0001:00022387  3381 0001:00022396
  3382 0001:000223A4  3383 0001:000223AF  3384 0001:000223BB  3385 0001:000223C1
  3387 0001:000223DA  3388 0001:000223E2  3391 0001:000223EF  3402 0001:000223F8
  3403 0001:00022428  3404 0001:00022437  3405 0001:00022445  3406 0001:0002244E
  3407 0001:0002245E  3409 0001:00022476  3410 0001:00022484  3412 0001:0002249E
  3413 0001:000224AC  3407 0001:000224AF  3414 0001:000224B4  3415 0001:000224BF
  3416 0001:000224CE  3417 0001:000224E6  3418 0001:00022520  3422 0001:0002255A
  3423 0001:00022564  3425 0001:0002256D  3428 0001:0002257F  3429 0001:0002258F
  3430 0001:000225A3  3434 0001:000225BD  3436 0001:000225FA  3445 0001:00022604
  3446 0001:0002260D  3447 0001:0002261B  3449 0001:00022633  3450 0001:00022641
  3451 0001:0002264B  3452 0001:00022659  3447 0001:0002265C  3453 0001:00022661
  3462 0001:00022668  3463 0001:000226A5  3464 0001:000226AA  3466 0001:000226BA
  3467 0001:000226F7  3468 0001:00022701  3470 0001:00022725  3471 0001:00022730
  3472 0001:0002273B  3473 0001:00022746  3474 0001:00022757  3475 0001:00022765
  3476 0001:00022771  3477 0001:0002277B  3478 0001:00022785  3479 0001:00022796
  3480 0001:000227A4  3481 0001:000227AF  3482 0001:000227BB  3483 0001:000227C5
  3484 0001:000227D3  3485 0001:000227E2  3486 0001:000227F0  3487 0001:00022807
  3488 0001:00022815  3489 0001:00022825  3491 0001:0002283F  3493 0001:0002284F
  3494 0001:0002285B  3495 0001:00022868  3496 0001:00022872  3498 0001:00022878
  3500 0001:000228C1  3503 0001:000228DC  3506 0001:000228F9  3509 0001:0002291C
  3510 0001:00022924  3514 0001:00022930  3516 0001:00022994  3520 0001:000229AC
  3521 0001:000229BB  3522 0001:000229D1  3528 0001:000229D8  3529 0001:000229FE
  3531 0001:00022A06  3532 0001:00022A27  3534 0001:00022A2D  3535 0001:00022A3F
  3536 0001:00022A5E  3539 0001:00022A8A  3550 0001:00022AA4  3551 0001:00022AC0
  3552 0001:00022AE1  3554 0001:00022AF8  3556 0001:00022B0A  3557 0001:00022B13
  3559 0001:00022B15  3551 0001:00022B18  3560 0001:00022B1D  3561 0001:00022B23
  3562 0001:00022B56  3563 0001:00022B8D  3565 0001:00022BA0  3566 0001:00022BAF
  3567 0001:00022BCC  3568 0001:00022BD2  3574 0001:00022BD8  3575 0001:00022BE7
  3576 0001:00022BF1  3577 0001:00022C09  3580 0001:00022C11  3581 0001:00022C1F
  3582 0001:00022C29  3584 0001:00022C39  3585 0001:00022C43  3591 0001:00022C4C
  3592 0001:00022C78  3594 0001:00022C9A  3595 0001:00022CA7  3596 0001:00022CDE
  3598 0001:00022D16  3601 0001:00022D20  3602 0001:00022D2F  3603 0001:00022D4E
  3609 0001:00022D54  3610 0001:00022D63  3611 0001:00022D7A  3612 0001:00022D88
  3613 0001:00022D92  3614 0001:00022D9C  3615 0001:00022DAC  3616 0001:00022DBC
  3617 0001:00022DCC  3618 0001:00022DDC  3619 0001:00022DEC  3620 0001:00022DF7
  3621 0001:00022E07  3622 0001:00022E15  3624 0001:00022E2D  3627 0001:00022E4A
  3629 0001:00022E5A  3633 0001:00022E60  3634 0001:00022E6F  3635 0001:00022E77
  3636 0001:00022E85  3637 0001:00022E93  3639 0001:00022EB6  3641 0001:00022ECC
  3642 0001:00022ED7  3643 0001:00022EE2  3658 0001:00022EE8  3659 0001:00022F02
  3660 0001:00022F0D  3661 0001:00022F1C  3662 0001:00022F2A  3663 0001:00022F39
  3664 0001:00022F47  3665 0001:00022F68  3664 0001:00022F96  3666 0001:00022F9B
  3667 0001:00022FC9  3668 0001:00022FE8  3669 0001:00022FFF  3671 0001:00023024
  3673 0001:00023034  3675 0001:0002304F  3677 0001:0002305F  3678 0001:00023087
  3680 0001:0002308C  3681 0001:0002309D  3682 0001:000230A8  3683 0001:000230B3
  3684 0001:000230B8  3685 0001:000230BD  3686 0001:000230CD  3687 0001:000230DB
  3688 0001:000230F0  3689 0001:00023105  3690 0001:00023115  3691 0001:0002312C
  3692 0001:0002313C  3693 0001:0002314C  3694 0001:0002315C  3695 0001:0002316C
  3696 0001:0002317C  3697 0001:0002318B  3699 0001:00023199  3700 0001:000231A7
  3701 0001:000231B5  3702 0001:000231C3  3704 0001:000231D3  3705 0001:000231E2
  3706 0001:000231EA  3707 0001:000231F8  3708 0001:000231FE  3710 0001:0002321A
  3712 0001:00023241  3714 0001:00023251  3716 0001:00023265  3717 0001:0002326D
  3718 0001:0002327D  3719 0001:0002328A  3720 0001:00023297  3722 0001:000232A7
  3725 0001:000232B0  3726 0001:000232BC  3727 0001:000232C7  3728 0001:000232CF
  3731 0001:000232D4  3732 0001:000232DB  3733 0001:000232EF  3738 0001:000232F4
  3739 0001:00023303  3740 0001:00023314  3742 0001:0002331A  3743 0001:00023325
  3745 0001:0002332B  3746 0001:00023332  3755 0001:00023338  3756 0001:00023345
  3757 0001:00023349  3758 0001:0002335F  3759 0001:00023375  3758 0001:0002338E
  3760 0001:00023393  3761 0001:000233A7  3762 0001:000233AE  3767 0001:000233B4
  3768 0001:000233C3  3769 0001:000233CE  3772 0001:000233D7  3773 0001:000233DA
  3770 0001:00023404  3775 0001:00023433  3777 0001:00023448  3778 0001:00023467
  3779 0001:00023489  3781 0001:0002349D  3782 0001:000234BB  3783 0001:000234CF
  3785 0001:000234E6  3786 0001:0002351C  3787 0001:0002351E  3781 0001:00023521
  3788 0001:00023526  3789 0001:00023544  3790 0001:00023571  3791 0001:00023588
  3778 0001:0002358B  3792 0001:000235B6  3795 0001:000235BC  3796 0001:000235CC
  3797 0001:000235DD  3802 0001:000235E4  3803 0001:000235ED  3804 0001:000235F7
  3808 0001:00023617  3809 0001:00023621  3810 0001:0002362D  3811 0001:0002363B
  3812 0001:00023643  3813 0001:0002364F  3814 0001:0002365A  3815 0001:00023664
  3816 0001:00023672  3820 0001:0002368D  3821 0001:00023699  3823 0001:000236AB
  3824 0001:000236B8  3827 0001:000236C3  3834 0001:000236C8  3835 0001:000236EE
  3836 0001:000236FD  3837 0001:0002370B  3838 0001:00023716  3840 0001:0002372E
  3841 0001:0002375D  3842 0001:00023763  3843 0001:0002376E  3838 0001:00023771
  3845 0001:00023783  3847 0001:000237C0  3853 0001:000237D8  3854 0001:000237FE
  3855 0001:00023802  3857 0001:00023817  3858 0001:00023828  3861 0001:0002382E
  3862 0001:00023849  3863 0001:0002386A  3865 0001:0002387C  3866 0001:0002388A
  3867 0001:0002388E  3861 0001:00023891  3868 0001:00023896  3869 0001:0002389C
  3870 0001:000238C9  3875 0001:000238E0  3876 0001:00023906  3878 0001:00023910
  3879 0001:0002391E  3880 0001:0002392C  3881 0001:00023932  3882 0001:00023940
  3883 0001:00023961  3885 0001:00023967  3886 0001:00023978  3889 0001:0002398D
  3892 0001:000239C8  3895 0001:000239E0  3896 0001:000239FF  3897 0001:00023A20
  3899 0001:00023A29  3900 0001:00023A48  3906 0001:00023A5E  3907 0001:00023A80
  3909 0001:00023AC1  3912 0001:00023AD8  3913 0001:00023AE4  3914 0001:00023AF2
  3917 0001:00023AF8  3918 0001:00023B04  3919 0001:00023B12  3920 0001:00023B1A
  3925 0001:00023B20  3926 0001:00023B2D  3927 0001:00023B40  3930 0001:00023B52
  3931 0001:00023B63  3932 0001:00023B69  3934 0001:00023B76  3944 0001:00023B7C
  3945 0001:00023B9B  3946 0001:00023BB8  3948 0001:00023BD6  3949 0001:00023C02
  3950 0001:00023C10  3951 0001:00023C1E  3952 0001:00023C2C  3953 0001:00023C3A
  3946 0001:00023C3D  3954 0001:00023C42  3956 0001:00023C4F  3957 0001:00023C5A
  3958 0001:00023C65  3959 0001:00023C70  3961 0001:00023C98  3973 0001:00023CA0
  3974 0001:00023CC2  3975 0001:00023CC6  3976 0001:00023CCC  3977 0001:00023CDA
  3979 0001:00023CE0  3981 0001:00023D0A  3982 0001:00023D22  3984 0001:00023D50
  3986 0001:00023D54  3987 0001:00023D74  3988 0001:00023D83  3989 0001:00023D91
  3990 0001:00023D9B  3991 0001:00023DAB  3993 0001:00023DC3  3994 0001:00023DE5
  3995 0001:00023DEB  3996 0001:00023E07  3991 0001:00023E0A  3998 0001:00023E1C
  4000 0001:00023E51  4006 0001:00023E58  4007 0001:00023E67  4008 0001:00023E7E
  4009 0001:00023E8C  4010 0001:00023E95  4011 0001:00023EA2  4012 0001:00023EB2
  4013 0001:00023EC2  4015 0001:00023EDD  4016 0001:00023EEE  4018 0001:00023F00
  4019 0001:00023F08  4021 0001:00023F13  4013 0001:00023F16  4022 0001:00023F1B
  4023 0001:00023F23  4024 0001:00023F33  4026 0001:00023F48  4027 0001:00023F50
  4029 0001:00023F60  4035 0001:00023F68  4036 0001:00023F8B  4037 0001:00023F9E
  4038 0001:00023FB6  4039 0001:00023FC1  4042 0001:00023FC8  4043 0001:00023FF2
  4045 0001:0002400A  4047 0001:00024020  4048 0001:00024034  4040 0001:00024037
  4050 0001:00024056  4055 0001:0002406C  4056 0001:00024078  4058 0001:000240A9
  4062 0001:000240B0  4063 0001:000240D3  4064 0001:000240E7  4067 0001:00024100
  4068 0001:00024109  4069 0001:0002412D  4071 0001:00024133  4072 0001:00024143
  4073 0001:00024176  4078 0001:0002418C  4079 0001:00024198  4080 0001:000241B0
  4083 0001:000241B4  4084 0001:000241C0  4085 0001:000241CE  4087 0001:000241E6
  4088 0001:000241F1  4100 0001:000241F8  4101 0001:0002421A  4102 0001:00024227
  4103 0001:00024243  4105 0001:0002424D  4106 0001:0002425E  4109 0001:0002426A
  4108 0001:00024273  4110 0001:0002427C  4111 0001:0002428A  4112 0001:00024298
  4113 0001:000242B2  4115 0001:000242C9  4116 0001:000242DD  4117 0001:000242F0
  4122 0001:0002434D  4123 0001:0002435E  4124 0001:00024364  4126 0001:00024385
  4113 0001:00024388  4128 0001:0002439E  4132 0001:000243B4  4134 0001:000243D3
  4135 0001:00024412  4136 0001:00024418  4138 0001:0002444E  4142 0001:00024458
  4143 0001:00024461  4145 0001:00024481  4146 0001:0002448E  4147 0001:000244A9
  4146 0001:000244C1  4148 0001:000244C6  4150 0001:000244F1  4151 0001:0002450F
  4152 0001:0002452B  4151 0001:0002454D  4153 0001:00024552  4155 0001:0002455C
  4162 0001:00024560  4163 0001:00024566  4164 0001:0002456A  4165 0001:0002458B
  4164 0001:000245B3  4166 0001:000245B8  4167 0001:000245BF  4172 0001:000245C4
  4173 0001:000245CD  4174 0001:000245D3  4175 0001:000245D9  4176 0001:000245FA
  4177 0001:00024611  4179 0001:0002461C  4180 0001:00024625  4181 0001:00024627
  4175 0001:0002462A  4182 0001:00024632  4187 0001:00024638  4188 0001:00024644
  4189 0001:00024652  4191 0001:00024658  4192 0001:00024668  4194 0001:00024676
  4195 0001:0002467D  4197 0001:00024684  4198 0001:0002468B  4199 0001:000246A3
  4205 0001:000246A8  4206 0001:000246C4  4207 0001:000246DA  4208 0001:000246F4
  4210 0001:000246FD  4211 0001:0002470B  4213 0001:00024719  4215 0001:00024722
  4216 0001:00024728  4217 0001:0002472E  4218 0001:00024734  4219 0001:0002473A
  4220 0001:00024740  4221 0001:0002474E  4222 0001:0002475A  4224 0001:00024783
  4233 0001:00024788  4234 0001:000247A4  4235 0001:00024803  4237 0001:00024808
  4238 0001:00024814  4239 0001:00024823  4240 0001:00024831  4241 0001:00024849
  4242 0001:00024857  4243 0001:00024860  4240 0001:00024871  4244 0001:00024876
  4245 0001:00024882  4246 0001:0002488D  4247 0001:0002489B  4248 0001:000248A7
  4250 0001:000248BF  4251 0001:000248CD  4253 0001:000248E5  4254 0001:0002490E
  4248 0001:00024911  4256 0001:00024923  4258 0001:00024933  4263 0001:00024938
  4264 0001:00024947  4265 0001:00024965  4266 0001:00024979  4268 0001:0002498B
  4269 0001:000249BA  4270 0001:000249CB  4264 0001:000249CE  4271 0001:000249D3
  4280 0001:000249D8  4281 0001:000249DF  4282 0001:000249ED  4283 0001:000249FD
  4284 0001:00024A0A  4286 0001:00024A10  4287 0001:00024A36  4288 0001:00024A45
  4290 0001:00024A53  4291 0001:00024A5B  4292 0001:00024A66  4293 0001:00024A76
  4296 0001:00024AA1  4297 0001:00024ABF  4300 0001:00024ACE  4303 0001:00024B14
  4305 0001:00024B31  4307 0001:00024B70  4315 0001:00024B78  4316 0001:00024B9E
  4317 0001:00024BC5  4318 0001:00024BCB  4320 0001:00024BDC  4321 0001:00024BE2
  4322 0001:00024BF0  4323 0001:00024C1C  4324 0001:00024C33  4325 0001:00024C41
  4326 0001:00024C54  4328 0001:00024C6F  4330 0001:00024C7F  4332 0001:00024C8A
  4334 0001:00024C90  4335 0001:00024C9C  4338 0001:00024CB4  4340 0001:00024CE9
  4344 0001:00024CF0  4345 0001:00024CFC  4346 0001:00024D09  4347 0001:00024D0E
  4348 0001:00024D17  4349 0001:00024D25  4350 0001:00024D38  4359 0001:00024D3C
  4362 0001:00024D62  4364 0001:00024D6F  4365 0001:00024D74  4366 0001:00024D82
  4367 0001:00024D91  4369 0001:00024DB0  4370 0001:00024DC1  4373 0001:00024DCE
  4374 0001:00024DD9  4375 0001:00024DE4  4371 0001:00024DEF  4377 0001:00024DFE
  4378 0001:00024E0C  4380 0001:00024E31  4381 0001:00024E49  4380 0001:00024E68
  4382 0001:00024E6D  4367 0001:00024E70  4383 0001:00024E79  4384 0001:00024E88
  4383 0001:00024EB4  4386 0001:00024EC7  4388 0001:00024F0C  4395 0001:00024F24
  4396 0001:00024F5C  4398 0001:00024F8C  4399 0001:00024FCB  4401 0001:00024FD1
  4402 0001:00024FDE  4403 0001:00024FE8  4404 0001:00024FF1  4407 0001:00025064
  4410 0001:0002507C  4411 0001:00025085  4412 0001:0002508E  4415 0001:00025094
  4416 0001:0002509D  4417 0001:000250A9  4420 0001:000250B0  4421 0001:000250B9
  4422 0001:000250E2  4427 0001:000250E8  4428 0001:000250F1  4429 0001:000250FC
  4430 0001:00025114  4431 0001:0002511C  4432 0001:00025124  4436 0001:00025128
  4437 0001:0002514D  4438 0001:00025154  4442 0001:0002515C  4443 0001:0002516C
  4445 0001:00025172  4446 0001:0002517D  4447 0001:0002518E  4448 0001:000251A1
  4451 0001:000251AF  4452 0001:000251B6  4454 0001:000251BE  4457 0001:000251C8
  4458 0001:000251DA  4459 0001:000251F0  4461 0001:00025218  4462 0001:00025220
  4466 0001:00025224  4467 0001:00025230  4468 0001:00025244  4471 0001:0002524C
  4472 0001:0002526B  4473 0001:0002529E  4478 0001:000252A4  4479 0001:000252B0
  4480 0001:000252BF  4481 0001:000252DA  4482 0001:000252F2  4480 0001:000252F5
  4482 0001:000252FC  4483 0001:00025314  4484 0001:00025322  4487 0001:00025328
  4488 0001:00025334  4489 0001:00025348  4495 0001:0002534C  4496 0001:0002536B
  4499 0001:000253A6  4500 0001:000253AE  4501 0001:000253C9  4502 0001:000253D4
  4505 0001:000253E1  4506 0001:0002541B  4511 0001:00025440  4512 0001:0002544D
  4513 0001:00025463  4514 0001:00025471  4515 0001:0002547F  4516 0001:0002548D
  4517 0001:000254A6  4518 0001:000254BE  4517 0001:000254D8  4520 0001:000254EA
  4522 0001:00025500  4525 0001:00025508  4526 0001:00025514  4527 0001:00025522
  4534 0001:00025528  4535 0001:00025531  4536 0001:00025535  4543 0001:000255AC
  4544 0001:000255B3  4546 0001:00025654  4551 0001:0002568C  4553 0001:0002569C
  4554 0001:000256AE  4556 0001:000256C2  4559 0001:000256FE  4563 0001:00025747
  4565 0001:000257AF  4581 0001:000257B4  4582 0001:000257DD  4583 0001:000257EB
  4584 0001:00025809  4585 0001:00025817  4587 0001:00025833  4588 0001:00025841
  4589 0001:0002584F  4590 0001:00025867  4594 0001:00025883  4595 0001:0002589A
  4596 0001:000258CB  4585 0001:000258CE  4597 0001:00025901  4602 0001:00025908
  4603 0001:00025927  4604 0001:0002592B  4605 0001:00025946  4606 0001:00025987
  4608 0001:0002599C  4609 0001:000259C2  4610 0001:000259CA  4611 0001:000259E5
  4612 0001:000259F3  4613 0001:00025A07  4614 0001:00025A15  4616 0001:00025A37
  4617 0001:00025A5C  4619 0001:00025A62  4620 0001:00025A6D  4622 0001:00025A94
  4625 0001:00025AC5  4614 0001:00025AC8  4627 0001:00025ADE  4629 0001:00025B21
  4632 0001:00025B28  4633 0001:00025B34  4634 0001:00025B45  4642 0001:00025B4C
  4643 0001:00025B72  4644 0001:00025B83  4646 0001:00025B8D  4647 0001:00025B9F
  4649 0001:00025BA5  4650 0001:00025BAE  4654 0001:00025BBB  4655 0001:00025BE1
  4656 0001:00025BE6  4657 0001:00025BEC  4658 0001:00025BF7  4660 0001:00025C19
  4661 0001:00025C1E  4662 0001:00025C24  4663 0001:00025C32  4665 0001:00025C50
  4667 0001:00025C83  4672 0001:00025C88  4673 0001:00025CAF  4674 0001:00025CB7
  4676 0001:00025CBD  4677 0001:00025CCB  4678 0001:00025CD4  4680 0001:00025D0B
  4682 0001:00025D58  4685 0001:00025D60  4686 0001:00025D6C  4687 0001:00025D7D
  4690 0001:00025D84  4691 0001:00025DAB  4692 0001:00025DBA  4694 0001:00025DCD
  4695 0001:00025E00  4696 0001:00025E06  4699 0001:00025E27  4700 0001:00025E2F
  4701 0001:00025E41  4702 0001:00025E81  4705 0001:00025E94  4706 0001:00025EA0
  4707 0001:00025EB1  4710 0001:00025EB8  4711 0001:00025EC7  4712 0001:00025EF2
  4728 0001:00025EF8  4729 0001:00025F1B  4730 0001:00025F1F  4731 0001:00025F2D
  4732 0001:00025F3C  4733 0001:00025F4A  4734 0001:00025F5E  4736 0001:00025F7C
  4737 0001:00025FA1  4738 0001:00025FB4  4734 0001:00025FB7  4739 0001:00025FBC
  4740 0001:00025FE8  4748 0001:00025FF0  4749 0001:00026016  4751 0001:00026020
  4752 0001:00026031  4753 0001:0002603F  4754 0001:00026045  4755 0001:0002604B
  4756 0001:00026053  4757 0001:0002607B  4758 0001:0002609B  4759 0001:000260A4
  4761 0001:000260AF  4762 0001:000260C0  4764 0001:00026115  4768 0001:0002611C
  4769 0001:00026148  4770 0001:00026156  4773 0001:000261A1  4775 0001:000261F7
  4778 0001:000261FC  4779 0001:00026208  4780 0001:00026216  4785 0001:0002621C
  4786 0001:00026228  4788 0001:0002622E  4789 0001:0002623C  4790 0001:00026242
  4792 0001:00026253  4795 0001:00026258  4796 0001:00026261  4797 0001:0002626F
  4800 0001:00026274  4801 0001:0002627B  4802 0001:0002628C  4805 0001:00026294
  4806 0001:000262A0  4807 0001:000262B1  4810 0001:000262B8  4811 0001:000262C1
  4812 0001:000262D2  4818 0001:000262D8  4819 0001:000262FB  4820 0001:00026302
  4821 0001:0002630A  4822 0001:00026325  4824 0001:00026336  4825 0001:00026341
  4826 0001:00026358  4827 0001:00026372  4821 0001:00026375  4828 0001:00026397
  4835 0001:0002639C  4836 0001:000263C2  4843 0001:000263D9  4846 0001:000263E0
  4847 0001:000263FB  4848 0001:00026401  4851 0001:0002640F  4844 0001:00026412
  4860 0001:00026421  4861 0001:0002643E  4862 0001:0002644C  4863 0001:00026454
  4864 0001:0002645C  4865 0001:00026465  4866 0001:00026470  4867 0001:0002647B
  4868 0001:00026484  4869 0001:0002648F  4870 0001:0002649A  4871 0001:000264A2
  4872 0001:000264AD  4873 0001:000264B8  4874 0001:000264C5  4875 0001:000264D3
  4876 0001:000264DB  4877 0001:00026513  4884 0001:00026528  4885 0001:0002654D
  4886 0001:00026559  4888 0001:0002657D  4889 0001:0002658F  4890 0001:00026598
  4893 0001:000265EE  4894 0001:00026625  4895 0001:0002663C  4896 0001:0002665B
  4897 0001:00026663  4898 0001:0002666C  4899 0001:0002667C  4900 0001:0002668A
  4902 0001:0002669D  4903 0001:000266B8  4904 0001:000266BE  4905 0001:000266CC
  4900 0001:000266CF  4907 0001:000266E2  4908 0001:000266EB  4910 0001:00026748
  4916 0001:00026760  4917 0001:0002677E  4918 0001:00026786  4919 0001:00026791
  4922 0001:000267A1  4923 0001:000267C2  4925 0001:000267D3  4926 0001:0002680E
  4930 0001:00026824  4931 0001:00026834  4933 0001:0002684D  4936 0001:00026854
  4937 0001:0002685B  4938 0001:00026869  4939 0001:00026877  4943 0001:00026892
  4945 0001:000268A8  4946 0001:000268B2  4954 0001:000268B8  4955 0001:000268C1
  4962 0001:000268D3  4967 0001:000268E6  4968 0001:000268F8  4969 0001:00026906
  4971 0001:0002691C  4972 0001:0002692A  4973 0001:0002693C  4974 0001:0002694A
  4969 0001:0002694D  4976 0001:0002695F  4979 0001:0002696F  4986 0001:00026974
  4987 0001:000269A5  4988 0001:000269B0  4990 0001:000269D3  4991 0001:000269DF
  4993 0001:000269F5  4994 0001:000269F9  4995 0001:00026A14  4996 0001:00026A22
  4999 0001:00026A59  5000 0001:00026A5F  5002 0001:00026A65  5003 0001:00026A6F
  4994 0001:00026A72  5005 0001:00026A77  5007 0001:00026A82  5008 0001:00026A8F
  5010 0001:00026A99  5011 0001:00026AAE  5012 0001:00026ABC  5013 0001:00026AC4
  5014 0001:00026AF3  5016 0001:00026B19  5017 0001:00026B26  5021 0001:00026B30
  5022 0001:00026B3E  5023 0001:00026B4C  5026 0001:00026B65  5027 0001:00026B75
  5028 0001:00026B8E  5029 0001:00026BA0  5030 0001:00026BAA  5024 0001:00026BB2
  5033 0001:00026BCE  5036 0001:00026BE4  5037 0001:00026C0B  5038 0001:00026C53
  5041 0001:00026C6C  5042 0001:00026C88  5043 0001:00026CC4  5046 0001:00026CC8
  5047 0001:00026CCF  5048 0001:00026CDD  5049 0001:00026CEB  5052 0001:00026CF9
  5054 0001:00026D10  5056 0001:00026D26  5062 0001:00026D2C  5063 0001:00026D58
  5065 0001:00026D6B  5067 0001:00026D8E  5068 0001:00026D99  5070 0001:00026DC1
  5072 0001:00026DC9  5073 0001:00026DD6  5075 0001:00026DFE  5076 0001:00026E53
  5079 0001:00026E6C  5080 0001:00026E7B  5081 0001:00026E9A  5084 0001:00026EA0
  5085 0001:00026EAA  5087 0001:00026EF6  5088 0001:00026EFC  5089 0001:00026F22
  5092 0001:00026F28  5093 0001:00026F34  5094 0001:00026F54  5097 0001:00026F58
  5098 0001:00026F64  5099 0001:00026F72  5102 0001:00026F78  5103 0001:00026F81
  5104 0001:00026F90  5107 0001:00026F94  5108 0001:00026F9D  5109 0001:00026FAC
  5114 0001:00026FB0  5115 0001:00026FDB  5116 0001:00026FE9  5117 0001:00027005
  5118 0001:0002700E  5119 0001:00027072  5122 0001:00027078  5123 0001:0002707F
  5125 0001:000270B2  5126 0001:000270C4  5127 0001:000270D0  5129 0001:000270DD
  5130 0001:000270E7  5133 0001:000270EC  5134 0001:0002710B  5135 0001:00027114
  5136 0001:00027164  5139 0001:00027168  5140 0001:00027174  5141 0001:0002717A
  5143 0001:00027187  5144 0001:00027192  5151 0001:00027198  5152 0001:000271BE
  5153 0001:000271CA  5155 0001:000271D7  5156 0001:000271EE  5158 0001:00027201
  5159 0001:0002721C  5160 0001:00027222  5161 0001:00027230  5156 0001:00027233
  5164 0001:00027239  5165 0001:00027281  5174 0001:00027298  5175 0001:000272BC
  5176 0001:000272C5  5177 0001:000272D5  5178 0001:000272E3  5179 0001:000272F1
  5180 0001:00027302  5182 0001:00027308  5183 0001:00027311  5184 0001:0002731F
  5185 0001:00027330  5186 0001:00027349  5187 0001:0002735E  5190 0001:00027383
  5193 0001:00027399  5194 0001:000273AD  5195 0001:000273CE  5196 0001:000273DB
  5198 0001:000273EB  5193 0001:000273FB  5200 0001:00027401  5201 0001:00027418
  5202 0001:00027431  5203 0001:00027452  5204 0001:0002746A  5203 0001:00027485
  5205 0001:0002748A  5207 0001:0002749B  5209 0001:000274AE  5210 0001:000274C9
  5211 0001:000274CF  5212 0001:000274DD  5207 0001:000274E0  5214 0001:000274E6
  5216 0001:000274F3  5217 0001:00027579  5225 0001:000275A0  5226 0001:000275C5
  5227 0001:000275CD  5228 0001:000275DB  5230 0001:000275EE  5231 0001:000275F8
  5233 0001:0002760A  5234 0001:00027627  5236 0001:00027642  5237 0001:00027666
  5238 0001:00027671  5239 0001:00027677  5240 0001:00027682  5234 0001:00027685
  5241 0001:0002768A  5245 0001:000276A4  5246 0001:000276D1  5249 0001:000276FF
  5250 0001:00027705  5251 0001:0002771D  5250 0001:00027738  5252 0001:0002773D
  5253 0001:00027743  5254 0001:0002775B  5253 0001:00027776  5255 0001:0002777B
  5256 0001:00027789  5257 0001:0002780D  5260 0001:00027824  5261 0001:0002782D
  5262 0001:00027840  5270 0001:00027844  5271 0001:0002785E  5272 0001:00027862
  5274 0001:00027880  5275 0001:000278A2  5276 0001:000278B1  5272 0001:000278B4
  5277 0001:000278B9  5278 0001:000278DD  5280 0001:000278E4  5281 0001:000278ED
  5283 0001:0002791F  5286 0001:00027924  5287 0001:0002792D  5288 0001:0002793E
  5291 0001:00027944  5292 0001:0002794B  5294 0001:00027957  5295 0001:00027961
  5296 0001:0002796F  5297 0001:00027981  5298 0001:000279A2  5299 0001:000279AF
  5301 0001:000279C4  5304 0001:000279D6  5307 0001:000279DC  5308 0001:000279FB
  5309 0001:00027A34  5312 0001:00027A38  5313 0001:00027A5B  5314 0001:00027A69
  5316 0001:00027A99  5317 0001:00027AC6  5320 0001:00027ADC  5321 0001:00027AE8
  5322 0001:00027AF6  5325 0001:00027AFC  5326 0001:00027B08  5327 0001:00027B10
  5328 0001:00027B1D  5331 0001:00027B24  5332 0001:00027B43  5333 0001:00027B82
  5336 0001:00027B98  5337 0001:00027BA1  5338 0001:00027BB0  5341 0001:00027BB4
  5347 0001:00027BBB  5348 0001:00027BC6  5356 0001:00027BCC  5357 0001:00027BE6
  5358 0001:00027C12  5359 0001:00027C1D  5360 0001:00027C3F  5362 0001:00027C61
  5363 0001:00027C86  5364 0001:00027CAD  5359 0001:00027CB0  5365 0001:00027CB5
  5366 0001:00027CDD  5374 0001:00027CE4  5397 0001:00027CEB  5400 0001:00027CF0
  5401 0001:00027CF3  5402 0001:00027D0D  5403 0001:00027D1A  5404 0001:00027D25
  5412 0001:00027D28  5413 0001:00027D47  5415 0001:00027D57  5416 0001:00027D66
  5417 0001:00027D74  5419 0001:00027D96  5420 0001:00027DB8  5422 0001:00027DC7
  5423 0001:00027DD2  5424 0001:00027DDD  5425 0001:00027DE3  5427 0001:00027E01
  5428 0001:00027E0E  5431 0001:00027E18  5417 0001:00027E1B  5432 0001:00027E24
  5434 0001:00027E31  5435 0001:00027E3E  5436 0001:00027E4C  5437 0001:00027E5D
  5438 0001:00027E6B  5439 0001:00027E86  5440 0001:00027E9C  5439 0001:00027EAF
  5442 0001:00027EC1  5444 0001:00027EDA  5445 0001:00027EE8  5446 0001:00027F06
  5447 0001:00027F2A  5445 0001:00027F35  5448 0001:00027F3A  5449 0001:00027F48
  5450 0001:00027F66  5451 0001:00027F8A  5449 0001:00027F95  5453 0001:00027FA7
  5455 0001:00027FBC  5458 0001:00027FD4  5461 0001:00028037  5463 0001:0002804C
  5464 0001:00028058  5465 0001:00028081  5466 0001:0002808A  5467 0001:00028095
  5468 0001:000280A0  5469 0001:000280A9  5470 0001:000280B3  5474 0001:000280BA
  5477 0001:000280C0  5478 0001:000280CF  5479 0001:000280DD  5482 0001:000280E4
  5483 0001:00028103  5484 0001:00028136  5487 0001:0002813C  5488 0001:00028145
  5489 0001:00028156  5492 0001:0002815C  5493 0001:0002816B  5494 0001:0002817C
  5497 0001:00028180  5498 0001:000281A3  5499 0001:000281D9  5510 0001:000281E0
  5511 0001:0002820F  5512 0001:00028219  5513 0001:00028229  5514 0001:0002823C
  5515 0001:00028242  5516 0001:0002826D  5518 0001:0002829E  5514 0001:000282A9
  5524 0001:000282AF  5525 0001:000282F9  5526 0001:0002830D  5527 0001:00028320
  5528 0001:0002832F  5529 0001:0002838C  5534 0001:000283B0  5535 0001:000283D9
  5538 0001:00028411  5541 0001:0002846E  5542 0001:00028494  5544 0001:00028499
  5546 0001:000284C3  5548 0001:000284DC  5550 0001:00028506  5551 0001:0002852C
  5553 0001:00028553  5554 0001:00028579  5555 0001:0002858A  5556 0001:000285B0
  5560 0001:000285E2  5561 0001:0002861D  5563 0001:00028632  5564 0001:0002863B
  5565 0001:0002864C  5566 0001:00028658  5569 0001:00028672  5573 0001:0002867F
  5577 0001:000286AB  5578 0001:000286B9  5579 0001:000286D5  5578 0001:000286F3
  5581 0001:000286F8  5582 0001:0002873E  5585 0001:00028770  5586 0001:00028779
  5587 0001:00028785  5590 0001:0002878C  5591 0001:00028798  5592 0001:000287A6
  5596 0001:000287AC  5597 0001:000287BB  5598 0001:000287C5  5599 0001:000287D3
  5601 0001:000287F1  5603 0001:00028806  5608 0001:0002880C  5609 0001:0002882F
  5612 0001:000288AF  5615 0001:000288C4  5616 0001:000288D0  5617 0001:000288DA
  5619 0001:000288E3  5620 0001:000288EE  5622 0001:000288F9  5624 0001:0002890B
  5628 0001:00028916  5631 0001:0002891C  5632 0001:00028928  5633 0001:00028932
  5637 0001:00028938  5638 0001:00028947  5639 0001:00028957  5640 0001:00028962
  5646 0001:00028968  5647 0001:00028991  5648 0001:000289AA  5650 0001:000289D5
  5652 0001:00028A22  5655 0001:00028A28  5656 0001:00028A34  5657 0001:00028A4D
  5660 0001:00028A54  5661 0001:00028A60  5662 0001:00028A6E  5665 0001:00028A74
  5666 0001:00028A90  5667 0001:00028A9A  5668 0001:00028AA4  5669 0001:00028AAC
  5670 0001:00028AD4  5671 0001:00028B11  5681 0001:00028B60  5682 0001:00028B86
  5683 0001:00028B8C  5684 0001:00028B92  5686 0001:00028BAD  5689 0001:00028BC1
  5690 0001:00028BE2  5694 0001:00028C03  5695 0001:00028C24  5698 0001:00028C43
  5700 0001:00028C4B  5701 0001:00028C5C  5702 0001:00028C73  5703 0001:00028C84
  5704 0001:00028C87  5706 0001:00028C8A  5707 0001:00028C96  5708 0001:00028CB5
  5709 0001:00028CFC  5714 0001:00028D04  5715 0001:00028D27  5716 0001:00028D3D
  5717 0001:00028D4E  5718 0001:00028D7D  5719 0001:00028D8A  5720 0001:00028DA1
  5721 0001:00028DAE  5722 0001:00028DC5  5723 0001:00028DE3  5724 0001:00028DFF
  5715 0001:00028E02  5725 0001:00028E28  5730 0001:00028E30  5731 0001:00028E3C
  5733 0001:00028E46  5734 0001:00028E5C  5737 0001:00028E6E  5738 0001:00028E7B
  5739 0001:00028E8F  5740 0001:00028EA5  5739 0001:00028EC5  5744 0001:00028ECC
  5745 0001:00028ED9  5746 0001:00028EED  5747 0001:00028EFF  5746 0001:00028F1F
  5751 0001:00028F24  5759 0001:00028F28  5760 0001:00028F4A  5761 0001:00028F57
  5762 0001:00028F61  5763 0001:00028F6E  5764 0001:00028F7F  5763 0001:00028FA4
  5765 0001:00028FA9  5766 0001:00028FB2  5768 0001:00028FCC  5769 0001:00028FE4
  5770 0001:00028FF6  5771 0001:00029007  5772 0001:00029015  5773 0001:0002902C
  5774 0001:00029041  5769 0001:00029044  5775 0001:0002906E  5780 0001:00029074
  5781 0001:00029091  5782 0001:000290B6  5783 0001:000290D4  5782 0001:00029116
  5784 0001:00029138  5788 0001:00029140  5789 0001:0002915F  5790 0001:0002916D
  5792 0001:0002918D  5794 0001:000291A0  5795 0001:000291A8  5796 0001:000291C3
  5797 0001:000291D3  5798 0001:000291E0  5799 0001:0002921D  5800 0001:00029240
  5801 0001:0002926F  5802 0001:000292A5  5803 0001:000292C8  5804 0001:000292F4
  5806 0001:00029327  5808 0001:0002933D  5811 0001:00029351  5812 0001:00029392
  5821 0001:000293D0  5822 0001:000293ED  5823 0001:00029412  5824 0001:00029430
  5823 0001:00029472  5825 0001:00029494  5830 0001:0002949C  5831 0001:000294C8
  5832 0001:000294D6  5834 0001:000294F9  5835 0001:00029501  5837 0001:00029514
  5838 0001:0002951B  5839 0001:00029520  5840 0001:00029527  5841 0001:0002952C
  5842 0001:00029547  5843 0001:00029562  5845 0001:00029573  5846 0001:0002958B
  5847 0001:000295A3  5848 0001:000295BB  5849 0001:000295D3  5842 0001:000295D6
  5850 0001:000295DB  5851 0001:000295F6  5852 0001:00029607  5853 0001:00029630
  5854 0001:0002963D  5855 0001:0002964A  5856 0001:00029657  5857 0001:00029664
  5858 0001:00029671  5859 0001:0002967C  5850 0001:0002967F  5860 0001:00029688
  5862 0001:000296D4  5868 0001:000296DC  5869 0001:000296E5  5870 0001:000296F3
  5871 0001:00029701  5872 0001:00029709  5874 0001:00029724  5875 0001:00029735
  5876 0001:00029741  5877 0001:0002974E  5872 0001:00029751  5879 0001:00029763
  5881 0001:00029779  5884 0001:00029780  5885 0001:00029787  5886 0001:00029791
  5889 0001:00029794  5890 0001:0002979B  5891 0001:000297A5  5896 0001:000297A8
  5897 0001:000297CB  5898 0001:000297D3  5899 0001:000297EE  5898 0001:00029820
  5900 0001:00029825  5901 0001:00029830  5902 0001:0002985D  5908 0001:00029874
  5909 0001:00029891  5910 0001:000298B4  5911 0001:000298BC  5912 0001:000298D7
  5914 0001:000298EB  5915 0001:000298F6  5916 0001:00029916  5917 0001:00029922
  5918 0001:0002992E  5919 0001:00029939  5911 0001:0002993C  5920 0001:00029941
  5921 0001:00029966  5926 0001:0002996C  5927 0001:0002997E  5928 0001:000299A7
  5930 0001:000299AD  5931 0001:000299BE  5933 0001:000299C6  5937 0001:000299CC
  5938 0001:000299EF  5939 0001:00029A25  5942 0001:00029A2C  5943 0001:00029A4B
  5944 0001:00029A7E  5947 0001:00029A84  5948 0001:00029A8B  5949 0001:00029A9A
  5950 0001:00029AB0  5951 0001:00029ABB  5954 0001:00029AC0  5955 0001:00029ACC
  5956 0001:00029ADD  5965 0001:00029AE4  5966 0001:00029AED  5967 0001:00029AF8
  5968 0001:00029AFE  5970 0001:00029B11  5971 0001:00029B1F  5972 0001:00029B31
  5973 0001:00029B41  5968 0001:00029B44  5974 0001:00029B4C  5982 0001:00029B50
  5983 0001:00029B5F  5984 0001:00029B67  5985 0001:00029B72  5986 0001:00029B85
  5985 0001:00029BA1  5987 0001:00029BA6  5988 0001:00029BB1  5990 0001:00029BC4
  5991 0001:00029BD2  5992 0001:00029BE4  5993 0001:00029BF7  5988 0001:00029BFA
  5994 0001:00029BFF  5999 0001:00029C04  6000 0001:00029C0D  6002 0001:00029C1C
  6003 0001:00029C43  6004 0001:00029C48  6007 0001:00029C5E  6010 0001:00029C64
  6011 0001:00029C6D  6012 0001:00029C75  6013 0001:00029C86  6016 0001:00029C8C
  6017 0001:00029C98  6018 0001:00029CA0  6019 0001:00029CB2  6022 0001:00029CB8
  6023 0001:00029CD7  6024 0001:00029D0A  6027 0001:00029D10  6028 0001:00029D2F
  6029 0001:00029D62  6032 0001:00029D68  6033 0001:00029D84  6034 0001:00029DBA
  6039 0001:00029DC0  6040 0001:00029DDB  6041 0001:00029DE5  6042 0001:00029DF3
  6044 0001:00029E08  6045 0001:00029E29  6048 0001:00029E30  6049 0001:00029E41
  6050 0001:00029E4A  6051 0001:00029E5F  6052 0001:00029E7B  6057 0001:00029E80
  6058 0001:00029E90  6059 0001:00029EAB  6061 0001:00029EBB  6062 0001:00029ECC
  6063 0001:00029ECE  6058 0001:00029ED1  6064 0001:00029ED6  6065 0001:00029EDE
  6068 0001:00029EE4  6069 0001:00029EED  6070 0001:00029EFE  6073 0001:00029F04
  6074 0001:00029F27  6075 0001:00029F7B  6078 0001:00029F90  6079 0001:00029F9D
  6080 0001:00029FB3  6087 0001:00029FB8  6088 0001:00029FDE  6089 0001:00029FE2
  6091 0001:0002A000  6092 0001:0002A01B  6093 0001:0002A03C  6091 0001:0002A051
  6094 0001:0002A056  6096 0001:0002A082  6099 0001:0002A098  6100 0001:0002A09F
  6101 0001:0002A0A8  6102 0001:0002A0B6  6106 0001:0002A0BC  6107 0001:0002A0CC
  6108 0001:0002A0D5  6109 0001:0002A0E9  6112 0001:0002A0F0  6113 0001:0002A108
  6114 0001:0002A112  6115 0001:0002A14D  6120 0001:0002A154  6121 0001:0002A174
  6122 0001:0002A18F  6121 0001:0002A1BE  6123 0001:0002A1E8  6126 0001:0002A200
  6127 0001:0002A20C  6128 0001:0002A215  6130 0001:0002A228  6131 0001:0002A22F
  6136 0001:0002A234  6137 0001:0002A243  6138 0001:0002A250  6139 0001:0002A256
  6140 0001:0002A267  6141 0001:0002A277  6143 0001:0002A29A  6144 0001:0002A2A5
  6145 0001:0002A2A7  6139 0001:0002A2AA  6146 0001:0002A2B0  6151 0001:0002A2C4
  6152 0001:0002A2D0  6153 0001:0002A2D5  6154 0001:0002A2DB  6155 0001:0002A2EC
  6156 0001:0002A2FC  6158 0001:0002A31F  6159 0001:0002A328  6160 0001:0002A32A
  6154 0001:0002A32D  6161 0001:0002A336  6166 0001:0002A33C  6167 0001:0002A362
  6169 0001:0002A37D  6174 0001:0002A39E  6176 0001:0002A3BA  6167 0001:0002A3BD
  6177 0001:0002A3C2  6178 0001:0002A3EF  6183 0001:0002A404  6184 0001:0002A42A
  6186 0001:0002A445  6187 0001:0002A466  6188 0001:0002A482  6184 0001:0002A485
  6189 0001:0002A48A  6190 0001:0002A4B7  6195 0001:0002A4CC  6196 0001:0002A4EF
  6198 0001:0002A50A  6199 0001:0002A52B  6200 0001:0002A53A  6196 0001:0002A53D
  6201 0001:0002A542  6202 0001:0002A567  6205 0001:0002A57C  6206 0001:0002A588
  6207 0001:0002A596  6215 0001:0002A59C  6216 0001:0002A5BB  6217 0001:0002A5C6
  6219 0001:0002A5E6  6220 0001:0002A5F5  6223 0001:0002A603  6224 0001:0002A60E
  6225 0001:0002A619  6221 0001:0002A624  6227 0001:0002A626  6228 0001:0002A635
  6227 0001:0002A661  6230 0001:0002A674  6233 0001:0002A6A1  6236 0001:0002A6A8
  6237 0001:0002A6B1  6238 0001:0002A6BD  6241 0001:0002A6C4  6242 0001:0002A6CD
  6243 0001:0002A6D6  6245 0001:0002A6E7  6246 0001:0002A6F5  6249 0001:0002A700
  6250 0001:0002A709  6251 0001:0002A721  6253 0001:0002A738  6254 0001:0002A740
  6257 0001:0002A744  6258 0001:0002A753  6259 0001:0002A76B  6261 0001:0002A795
  6262 0001:0002A79D  6265 0001:0002A7A4  6266 0001:0002A7C0  6267 0001:0002A7D2
  6268 0001:0002A81E  6273 0001:0002A828  6274 0001:0002A84B  6275 0001:0002A866
  6274 0001:0002A89E  6276 0001:0002A8D0  6279 0001:0002A8E8  6280 0001:0002A90B
  6281 0001:0002A949  6284 0001:0002A960  6285 0001:0002A969  6286 0001:0002A97A
  6291 0001:0002A980  6292 0001:0002A98C  6293 0001:0002A995  6294 0001:0002A9B0
  6293 0001:0002A9CB  6295 0001:0002A9D0  6298 0001:0002A9D4  6299 0001:0002A9E1
  6300 0001:0002A9E9  6301 0001:0002AA00  6302 0001:0002AA19  6305 0001:0002AA20
  6306 0001:0002AA2F  6307 0001:0002AA37  6308 0001:0002AA4E  6309 0001:0002AA76
  6316 0001:0002AA7C  6317 0001:0002AA9A  6318 0001:0002AAAD  6319 0001:0002AADA
  6317 0001:0002AAE5  6320 0001:0002AAEB  6321 0001:0002AB06  6322 0001:0002AB34
  6320 0001:0002AB42  6323 0001:0002AB7F  6328 0001:0002ABA4  6329 0001:0002ABC3
  6330 0001:0002ABD1  6332 0001:0002AC2D  6337 0001:0002AC44  6338 0001:0002AC50
  6339 0001:0002AC54  6340 0001:0002AC5A  6341 0001:0002AC6B  6342 0001:0002AC7B
  6344 0001:0002AC9E  6345 0001:0002ACA2  6346 0001:0002ACA4  6340 0001:0002ACA7
  6347 0001:0002ACB0  6350 0001:0002ACB4  6351 0001:0002ACC0  6353 0001:0002ACC8
  6359 0001:0002ACCC  6360 0001:0002ACF5  6361 0001:0002AD00  6362 0001:0002AD1A
  6363 0001:0002AD28  6365 0001:0002AD2E  6366 0001:0002AD3E  6369 0001:0002AD4E
  6370 0001:0002AD59  6371 0001:0002AD61  6372 0001:0002ADAB  6376 0001:0002ADC0
  6377 0001:0002ADD0  6378 0001:0002ADD9  6379 0001:0002ADF1  6384 0001:0002ADF8
  6385 0001:0002AE1B  6386 0001:0002AE36  6385 0001:0002AE68  6387 0001:0002AE92
  6390 0001:0002AEA8  6391 0001:0002AEC8  6393 0001:0002AECE  6394 0001:0002AEDC
  6395 0001:0002AEEC  6397 0001:0002AEF6  6398 0001:0002AF01  6399 0001:0002AF0C
  6400 0001:0002AF4D  6403 0001:0002AF64  6404 0001:0002AF70  6405 0001:0002AF7B
  6406 0001:0002AF86  6407 0001:0002AF8E  6410 0001:0002AF94  6411 0001:0002AFA0
  6412 0001:0002AFAE  6415 0001:0002AFB4  6416 0001:0002AFC0  6417 0001:0002AFCE
  6419 0001:0002AFD9  6420 0001:0002AFE6  6422 0001:0002AFF1  6429 0001:0002AFF8
  6430 0001:0002B01E  6431 0001:0002B029  6432 0001:0002B034  6433 0001:0002B044
  6435 0001:0002B057  6436 0001:0002B072  6437 0001:0002B078  6438 0001:0002B083
  6433 0001:0002B086  6439 0001:0002B0B9  6444 0001:0002B0D0  6445 0001:0002B0F3
  6446 0001:0002B0FC  6447 0001:0002B117  6446 0001:0002B149  6448 0001:0002B173
  6463 0001:0002B188  6466 0001:0002B1B3  6467 0001:0002B1BE  6468 0001:0002B1D0
  6469 0001:0002B1D8  6470 0001:0002B1E8  6473 0001:0002B228  6475 0001:0002B233
  6476 0001:0002B24C  6478 0001:0002B25F  6479 0001:0002B265  6481 0001:0002B287
  6490 0001:0002B28F  6492 0001:0002B2A2  6493 0001:0002B2BD  6494 0001:0002B2C3
  6495 0001:0002B2D1  6490 0001:0002B2D4  6497 0001:0002B2DA  6498 0001:0002B2E8
  6499 0001:0002B303  6501 0001:0002B313  6503 0001:0002B31E  6504 0001:0002B32C
  6505 0001:0002B332  6508 0001:0002B385  6515 0001:0002B3AC  6523 0001:0002B3CA
  6524 0001:0002B3DD  6525 0001:0002B40A  6523 0001:0002B415  6526 0001:0002B41B
  6527 0001:0002B436  6528 0001:0002B464  6526 0001:0002B472  6529 0001:0002B4AF
  6534 0001:0002B4D4  6535 0001:0002B4F4  6536 0001:0002B50F  6535 0001:0002B53E
  6537 0001:0002B568  6545 0001:0002B580  6546 0001:0002B59E  6547 0001:0002B5AB
  6548 0001:0002B5B9  6549 0001:0002B5C0  6550 0001:0002B5C8  6552 0001:0002B5E3
  6553 0001:0002B604  6555 0001:0002B613  6556 0001:0002B61B  6550 0001:0002B61E
  6557 0001:0002B623  6558 0001:0002B640  6559 0001:0002B648  6561 0001:0002B64E
  6562 0001:0002B65E  6564 0001:0002B669  6566 0001:0002B687  6568 0001:0002B6CB
  6573 0001:0002B6F0  6574 0001:0002B70B  6575 0001:0002B715  6576 0001:0002B73E
  6579 0001:0002B744  6580 0001:0002B753  6581 0001:0002B76D  6584 0001:0002B774
  6585 0001:0002B784  6586 0001:0002B79F  6589 0001:0002B7A4  6593 0001:0002B7B3
  6594 0001:0002B7CD  6599 0001:0002B7D4  6600 0001:0002B7EF  6601 0001:0002B7F9
  6602 0001:0002B807  6603 0001:0002B810  6604 0001:0002B82F  6605 0001:0002B843
  6606 0001:0002B860  6607 0001:0002B885  6610 0001:0002B890  6611 0001:0002B8A1
  6612 0001:0002B8B5  6613 0001:0002B8C9  6614 0001:0002B8E5  6619 0001:0002B8EC
  6620 0001:0002B8F9  6621 0001:0002B91D  6623 0001:0002B93F  6624 0001:0002B95B
  6625 0001:0002B969  6628 0001:0002B970  6629 0001:0002B97F  6630 0001:0002B9A0
  6633 0001:0002B9A4  6634 0001:0002B9AD  6635 0001:0002B9B9  6638 0001:0002B9C0
  6639 0001:0002B9CC  6640 0001:0002B9DE  6643 0001:0002B9E4  6644 0001:0002B9F6
  6645 0001:0002BA10  6646 0001:0002BA26  6648 0001:0002BA51  6649 0001:0002BA59
  6652 0001:0002BA60  6653 0001:0002BA69  6654 0001:0002BA75  6657 0001:0002BA7C
  6658 0001:0002BA89  6659 0001:0002BA9B  6666 0001:0002BAA0  6667 0001:0002BABD
  6668 0001:0002BADF  6669 0001:0002BAEC  6670 0001:0002BB00  6672 0001:0002BB20
  6674 0001:0002BB33  6675 0001:0002BB4D  6676 0001:0002BB75  6680 0001:0002BBA8
  6681 0001:0002BBAE  6683 0001:0002BBDA  6672 0001:0002BBDD  6684 0001:0002BC04
  6687 0001:0002BC10  6688 0001:0002BC19  6689 0001:0002BC2A  6690 0001:0002BC33
  6691 0001:0002BC48  6692 0001:0002BC59  6697 0001:0002BC60  6698 0001:0002BC6F
  6699 0001:0002BC80  6700 0001:0002BC85  6702 0001:0002BC90  6703 0001:0002BC99
  6705 0001:0002BCB5  6707 0001:0002BCE2  6709 0001:0002BCF9  6710 0001:0002BCFF
  6712 0001:0002BD28  6713 0001:0002BD30  6716 0001:0002BD34  6717 0001:0002BD43
  6718 0001:0002BD5A  6723 0001:0002BD60  6724 0001:0002BD7B  6725 0001:0002BD85
  6726 0001:0002BD8E  6727 0001:0002BDB2  6730 0001:0002BDB8  6731 0001:0002BDC9
  6732 0001:0002BDDD  6733 0001:0002BDF9  6736 0001:0002BE00  6737 0001:0002BE0D
  6738 0001:0002BE2B  6741 0001:0002BE34  6742 0001:0002BE41  6743 0001:0002BE60
  6746 0001:0002BE68  6747 0001:0002BE6F  6748 0001:0002BE80  6751 0001:0002BE88
  6752 0001:0002BE95  6753 0001:0002BEB3  6759 0001:0002BEBC  6760 0001:0002BED7
  6761 0001:0002BEE8  6762 0001:0002BF0C  6765 0001:0002BF14  6766 0001:0002BF1D
  6767 0001:0002BF29  6770 0001:0002BF30  6771 0001:0002BF3C  6772 0001:0002BF45
  6777 0001:0002BF4C  6778 0001:0002BF67  6779 0001:0002BF75  6780 0001:0002BF9E
  6785 0001:0002BFA4  6786 0001:0002BFBC  6787 0001:0002BFE9  6792 0001:0002BFF0
  6793 0001:0002C001  6794 0001:0002C031  6795 0001:0002C03C  6796 0001:0002C058
  6799 0001:0002C05C  6800 0001:0002C089  6801 0001:0002C0CB  6806 0001:0002C0D0
  6807 0001:0002C0DC  6808 0001:0002C0F4  6810 0001:0002C110  6811 0001:0002C126
  6812 0001:0002C128  6807 0001:0002C12B  6813 0001:0002C130  6816 0001:0002C134
  6817 0001:0002C13D  6818 0001:0002C14C  6821 0001:0002C150  6822 0001:0002C15C
  6823 0001:0002C170  6828 0001:0002C174  6829 0001:0002C18F  6830 0001:0002C198
  6831 0001:0002C1A1  6832 0001:0002C1AF  6833 0001:0002C1D8  6838 0001:0002C1E0
  6839 0001:0002C1F8  6840 0001:0002C225  6845 0001:0002C22C  6846 0001:0002C23D
  6847 0001:0002C26D  6848 0001:0002C278  6849 0001:0002C294  6852 0001:0002C298
  6853 0001:0002C2BD  6854 0001:0002C2FA  6857 0001:0002C300  6858 0001:0002C309
  6859 0001:0002C318  6862 0001:0002C31C  6863 0001:0002C328  6864 0001:0002C33C
  6867 0001:0002C340  6868 0001:0002C347  6869 0001:0002C355  6872 0001:0002C358
  6873 0001:0002C374  6874 0001:0002C3A4  6877 0001:0002C3A8  6878 0001:0002C3C2
  6879 0001:0002C3D0  6881 0001:0002C3E5  6882 0001:0002C415  6919 0001:0002C448
  6927 0001:0002C648  6929 0001:0002C66C  6930 0001:0002C679  6932 0001:0002C695
  6933 0001:0002C6A3  6934 0001:0002C6BC  6936 0001:0002C6EC  6938 0001:0002C70A
  6940 0001:0002C730  6941 0001:0002C794  6944 0001:0002C7A8  6946 0001:0002C7C7
  6947 0001:0002C7ED  6949 0001:0002C813  6950 0001:0002C82F  6951 0001:0002C85B
  6952 0001:0002C864  6953 0001:0002C88C  6958 0001:0002C890  6959 0001:0002C899
  6960 0001:0002C89D  6961 0001:0002C8B7  6962 0001:0002C8CC  6960 0001:0002C8CF
  6963 0001:0002C8D4  6964 0001:0002C8DB  6969 0001:0002C8E0  6970 0001:0002C8EF
  6971 0001:0002C909  6973 0001:0002C921  6974 0001:0002C935  6975 0001:0002C937
  6970 0001:0002C93A  6976 0001:0002C93F  6977 0001:0002C947  6982 0001:0002C94C
  6983 0001:0002C958  6984 0001:0002C972  6986 0001:0002C983  6987 0001:0002C989
  6988 0001:0002C98B  6983 0001:0002C98E  6989 0001:0002C993  6990 0001:0002C99D
  6995 0001:0002C9A4  6996 0001:0002C9AD  6997 0001:0002C9C7  6996 0001:0002C9DB
  6998 0001:0002C9E0  7003 0001:0002C9E4  7004 0001:0002C9F4  7006 0001:0002CA0E
  7007 0001:0002CA25  7008 0001:0002CA2D  7004 0001:0002CA30  7009 0001:0002CA35
  7012 0001:0002CA3C  7013 0001:0002CA48  7014 0001:0002CA56  7017 0001:0002CA5C
  7018 0001:0002CA7B  7019 0001:0002CA83  7020 0001:0002CA8C  7021 0001:0002CAD0
  7024 0001:0002CAE4  7025 0001:0002CAED  7026 0001:0002CAF6  7028 0001:0002CB06
  7029 0001:0002CB0D  7032 0001:0002CB14  7033 0001:0002CB20  7034 0001:0002CB29
  7036 0001:0002CB39  7037 0001:0002CB41  7040 0001:0002CB48  7041 0001:0002CB4F
  7042 0001:0002CB58  7043 0001:0002CB69  7046 0001:0002CB70  7047 0001:0002CB7C
  7048 0001:0002CB85  7049 0001:0002CB93  7054 0001:0002CB98  7055 0001:0002CBA1
  7056 0001:0002CBBB  7055 0001:0002CBCF  7057 0001:0002CBD4  7060 0001:0002CBD8
  7061 0001:0002CBE4  7062 0001:0002CBF8  7067 0001:0002CBFC  7068 0001:0002CC08
  7073 0001:0002CC18  7074 0001:0002CC36  7075 0001:0002CC54  7071 0001:0002CC57
  7077 0001:0002CC67  7078 0001:0002CC8D  7079 0001:0002CCB3  7081 0001:0002CCBE
  7082 0001:0002CCC9  7084 0001:0002CCD4  7087 0001:0002CCD8  7088 0001:0002CCE4
  7089 0001:0002CCEF  7090 0001:0002CCFA  7095 0001:0002CD00  7096 0001:0002CD0C
  7097 0001:0002CD10  7098 0001:0002CD21  7099 0001:0002CD31  7100 0001:0002CD3C
  7097 0001:0002CD3F  7101 0001:0002CD45  7102 0001:0002CD4C  7107 0001:0002CD50
  7108 0001:0002CD5C  7109 0001:0002CD76  7108 0001:0002CD8D  7110 0001:0002CD92
  7113 0001:0002CD98  7115 0001:0002CDA4  7119 0001:0002CDA8  7120 0001:0002CDB8
  7121 0001:0002CDC1  7122 0001:0002CDD6  7125 0001:0002CDE0  7126 0001:0002CDFA
  7127 0001:0002CE08  7128 0001:0002CE43  7133 0001:0002CE48  7134 0001:0002CE51
  7135 0001:0002CE6B  7134 0001:0002CE7F  7136 0001:0002CE84  7140 0001:0002CE88
  7141 0001:0002CEC4  7142 0001:0002CED2  7144 0001:0002CF04  7145 0001:0002CF33
  7150 0001:0002CF3C  7151 0001:0002CF57  7152 0001:0002CF64  7154 0001:0002CF6F
  7155 0001:0002CF7D  7156 0001:0002CFAB  7159 0001:0002CFC4  7160 0001:0002CFE0
  7161 0001:0002D010  7164 0001:0002D014  7165 0001:0002D01D  7166 0001:0002D025
  7169 0001:0002D02C  7170 0001:0002D03B  7171 0001:0002D043  7174 0001:0002D048
  7175 0001:0002D067  7176 0001:0002D070  7177 0001:0002D092  7178 0001:0002D0BD
  7181 0001:0002D0C4  7182 0001:0002D0CD  7183 0001:0002D0D4  7189 0001:0002D0D8
  7190 0001:0002D0F3  7191 0001:0002D11F  7194 0001:0002D128  7196 0001:0002D12F
  7199 0001:0002D134  7200 0001:0002D13D  7201 0001:0002D149  7206 0001:0002D150
  7207 0001:0002D159  7208 0001:0002D16A  7210 0001:0002D1BE  7213 0001:0002D1C4
  7214 0001:0002D1CD  7215 0001:0002D1DB  7216 0001:0002D209  7219 0001:0002D210
  7221 0001:0002D21C  7229 0001:0002D220  7230 0001:0002D23B  7231 0001:0002D244
  7232 0001:0002D252  7234 0001:0002D261  7235 0001:0002D270  7236 0001:0002D285
  7237 0001:0002D291  7241 0001:0002D297  7242 0001:0002D2A5  7243 0001:0002D2B0
  7245 0001:0002D2B4  7246 0001:0002D2E0  7249 0001:0002D2E4  7250 0001:0002D2F5
  7252 0001:0002D2FE  7255 0001:0002D330  7257 0001:0002D34F  7260 0001:0002D363
  7262 0001:0002D36E  7263 0001:0002D38A  7266 0001:0002D390  7267 0001:0002D399
  7268 0001:0002D3A5  7271 0001:0002D3AC  7272 0001:0002D3B8  7273 0001:0002D3C1
  7276 0001:0002D3C8  7278 0001:0002D3D4  7279 0001:0002D3E8  7284 0001:0002D3F0
  7285 0001:0002D40B  7286 0001:0002D415  7287 0001:0002D43E  7290 0001:0002D444
  7291 0001:0002D460  7292 0001:0002D496  7302 0001:0002D49C  7303 0001:0002D4CB
  7304 0001:0002D4CF  7307 0001:0002D514  7308 0001:0002D543  7309 0001:0002D54E
  7310 0001:0002D559  7311 0001:0002D564  7312 0001:0002D56F  7314 0001:0002D579
  7316 0001:0002D57E  7320 0001:0002D591  7321 0001:0002D59E  7325 0001:0002D5AE
  7326 0001:0002D5C4  7330 0001:0002D5DC  7331 0001:0002D5EA  7335 0001:0002D5FA
  7336 0001:0002D605  7339 0001:0002D615  7341 0001:0002D619  7342 0001:0002D64F
  7348 0001:0002D658  7349 0001:0002D687  7350 0001:0002D68B  7352 0001:0002D6D9
  7355 0001:0002D6EE  7356 0001:0002D6FC  7358 0001:0002D726  7360 0001:0002D74C
  7363 0001:0002D755  7365 0001:0002D770  7367 0001:0002D783  7369 0001:0002D7A1
  7371 0001:0002D7BC  7373 0001:0002D7E8  7378 0001:0002D7F0  7379 0001:0002D7FC
  7380 0001:0002D810  7383 0001:0002D814  7384 0001:0002D82F  7385 0001:0002D839
  7386 0001:0002D85D  7394 0001:0002D864  7395 0001:0002D887  7396 0001:0002D88F
  7397 0001:0002D89A  7399 0001:0002D8BA  7400 0001:0002D8BF  7402 0001:0002D8C5
  7403 0001:0002D8D5  7404 0001:0002D8EC  7406 0001:0002D8F7  7407 0001:0002D8FD
  7408 0001:0002D90B  7409 0001:0002D92F  7410 0001:0002D935  7412 0001:0002D979
  7417 0001:0002D990  7418 0001:0002D99F  7419 0001:0002D9B5  7420 0001:0002D9BB
  7421 0001:0002D9E4  7422 0001:0002D9EC  7425 0001:0002D9F0  7426 0001:0002D9F7
  7427 0001:0002DA0D  7430 0001:0002DA10  7431 0001:0002DA17  7432 0001:0002DA2D
  7435 0001:0002DA30  7436 0001:0002DA3F  7437 0001:0002DA45  7438 0001:0002DA6E
  7439 0001:0002DA76  7442 0001:0002DA7C  7443 0001:0002DA88  7444 0001:0002DA97
  7445 0001:0002DACA  7446 0001:0002DAD2  7449 0001:0002DAD8  7450 0001:0002DAE4
  7451 0001:0002DAF2  7454 0001:0002DAF8  7455 0001:0002DB04  7456 0001:0002DB1E
  7466 0001:0002DB34  7467 0001:0002DB40  7468 0001:0002DB52  7469 0001:0002DB60
  7471 0001:0002DB78  7473 0001:0002DB88  7476 0001:0002DB8C  7477 0001:0002DB96
  7478 0001:0002DB9F  7479 0001:0002DBBA  7482 0001:0002DBC0  7483 0001:0002DBCC
  7484 0001:0002DBE2  7487 0001:0002DBF8  7488 0001:0002DC04  7489 0001:0002DC35
  7494 0001:0002DC3C  7495 0001:0002DC4B  7497 0001:0002DC76  7498 0001:0002DC8C
  7499 0001:0002DC92  7500 0001:0002DCA2  7501 0001:0002DCA7  7502 0001:0002DCAD
  7503 0001:0002DCD6  7504 0001:0002DCDE  7507 0001:0002DCE4  7508 0001:0002DCED
  7509 0001:0002DD01  7512 0001:0002DD08  7513 0001:0002DD14  7514 0001:0002DD2D
  7515 0001:0002DD39  7518 0001:0002DD40  7519 0001:0002DD49  7520 0001:0002DD4D
  7521 0001:0002DD5B  7524 0001:0002DD60  7525 0001:0002DD67  7526 0001:0002DD7D
  7531 0001:0002DD80  7532 0001:0002DDB3  7533 0001:0002DDCE  7534 0001:0002DE03
  7537 0001:0002DE18  7538 0001:0002DE1F  7539 0001:0002DE35  7544 0001:0002DE38
  7545 0001:0002DE6B  7546 0001:0002DE86  7547 0001:0002DEBB  7552 0001:0002DED0
  7553 0001:0002DF03  7554 0001:0002DF1E  7555 0001:0002DF53  7563 0001:0002DF68
  7564 0001:0002DF8E  7566 0001:0002DFA9  7567 0001:0002DFBA  7568 0001:0002DFD5
  7569 0001:0002DFE7  7564 0001:0002DFEA  7570 0001:0002E014  7573 0001:0002E02C
  7574 0001:0002E039  7575 0001:0002E049  7578 0001:0002E050  7579 0001:0002E06C
  7580 0001:0002E0AE  7588 0001:0002E0C4  7589 0001:0002E0DF  7590 0001:0002E0E9
  7591 0001:0002E0F2  7592 0001:0002E116  7595 0001:0002E11C  7596 0001:0002E12D
  7597 0001:0002E138  7598 0001:0002E154  7601 0001:0002E158  7602 0001:0002E161
  7603 0001:0002E165  7605 0001:0002E190  7606 0001:0002E19D  7607 0001:0002E1A4
  7612 0001:0002E1A8  7613 0001:0002E1CB  7615 0001:0002E1E4  7616 0001:0002E1FE
  7618 0001:0002E211  7619 0001:0002E225  7620 0001:0002E22E  7621 0001:0002E23C
  7622 0001:0002E259  7623 0001:0002E266  7624 0001:0002E271  7625 0001:0002E277
  7626 0001:0002E2A3  7629 0001:0002E2B8  7630 0001:0002E2C5  7631 0001:0002E2C9
  7633 0001:0002E2DE  7634 0001:0002E2ED  7635 0001:0002E2F6  7636 0001:0002E304
  7639 0001:0002E336  7640 0001:0002E341  7642 0001:0002E351  7643 0001:0002E358
  7648 0001:0002E360  7649 0001:0002E36D  7651 0001:0002E377  7652 0001:0002E37B
  7653 0001:0002E3AD  7654 0001:0002E3BA  7655 0001:0002E3BF  7660 0001:0002E3C4
  7661 0001:0002E3D3  7663 0001:0002E3E8  7664 0001:0002E3F9  7665 0001:0002E422
  7666 0001:0002E42A  7669 0001:0002E430  7670 0001:0002E439  7671 0001:0002E44E
  7672 0001:0002E45E  7673 0001:0002E468  7676 0001:0002E46C  7677 0001:0002E475
  7678 0001:0002E481  7681 0001:0002E488  7682 0001:0002E497  7683 0001:0002E4B8
  7688 0001:0002E4BC  7689 0001:0002E4CC  7690 0001:0002E4E3  7691 0001:0002E4E9
  7692 0001:0002E512  7693 0001:0002E51A  7696 0001:0002E520  7697 0001:0002E529
  7698 0001:0002E540  7713 0001:0002E544  7714 0001:0002E550  7715 0001:0002E558
  7717 0001:0002E574  7718 0001:0002E588  7719 0001:0002E58E  7721 0001:0002E5B5
  7724 0001:0002E5BC  7725 0001:0002E5C5  7726 0001:0002E5E1  7729 0001:0002E5E8
  7730 0001:0002E5F1  7732 0001:0002E5FA  7733 0001:0002E610  7735 0001:0002E628
  7736 0001:0002E634  7739 0001:0002E638  7740 0001:0002E647  7741 0001:0002E65A
  7742 0001:0002E675  7743 0001:0002E67D  7746 0001:0002E684  7747 0001:0002E690
  7748 0001:0002E6A3  7749 0001:0002E6BC  7750 0001:0002E6C3  7755 0001:0002E6C8
  7756 0001:0002E6D4  7757 0001:0002E6EC  7758 0001:0002E6F2  7759 0001:0002E700
  7760 0001:0002E707  7765 0001:0002E70C  7766 0001:0002E71B  7768 0001:0002E72E
  7769 0001:0002E73F  7770 0001:0002E75C  7771 0001:0002E763  7776 0001:0002E768
  7777 0001:0002E777  7778 0001:0002E78F  7779 0001:0002E795  7780 0001:0002E7B2
  7781 0001:0002E7B9  7784 0001:0002E7C0  7785 0001:0002E7C9  7786 0001:0002E7DE
  7787 0001:0002E7E9  7788 0001:0002E7F1  7791 0001:0002E7F8  7792 0001:0002E801
  7793 0001:0002E80D  7796 0001:0002E814  7797 0001:0002E81D  7798 0001:0002E834
  7801 0001:0002E838  7802 0001:0002E844  7804 0001:0002E859  7805 0001:0002E86C
  7807 0001:0002E879  7808 0001:0002E88D  7811 0001:0002E893  7812 0001:0002E89A
  7817 0001:0002E8A0  7818 0001:0002E8AF  7820 0001:0002E8C2  7821 0001:0002E8D3
  7822 0001:0002E8F0  7823 0001:0002E8F7  7828 0001:0002E8FC  7829 0001:0002E90B
  7830 0001:0002E923  7831 0001:0002E929  7832 0001:0002E946  7833 0001:0002E94D
  7838 0001:0002E954  7839 0001:0002E95B  7840 0001:0002E969  7843 0001:0002E970
  7844 0001:0002E979  7845 0001:0002E98D  7848 0001:0002E994  7849 0001:0002E99B
  7850 0001:0002E9A9  7855 0001:0002E9B0  7856 0001:0002E9C0  7857 0001:0002E9D2
  7856 0001:0002E9F0  7858 0001:0002E9F6  7861 0001:0002E9FC  7862 0001:0002E9FF
  7863 0001:0002EA13  7865 0001:0002EA2E  7867 0001:0002EA42  7869 0001:0002EA56
  7871 0001:0002EA66  7872 0001:0002EA76  7873 0001:0002EA86  7874 0001:0002EA96
  7876 0001:0002EAA6  7877 0001:0002EAB6  7883 0001:0002EAC8  7884 0001:0002EACF
  7885 0001:0002EAD8  7886 0001:0002EAE9  7887 0001:0002EAFA  7888 0001:0002EB07
  7893 0001:0002EB0C  7894 0001:0002EB16  7895 0001:0002EB1F  7896 0001:0002EB37
  7895 0001:0002EB4E  7897 0001:0002EB53  7914 0001:0002EB58  7916 0001:0002EB76
  7917 0001:0002EB7F  7918 0001:0002EB89  7919 0001:0002EB93  7920 0001:0002EB9D
  7922 0001:0002EBD0  7899 0001:0002EBD4  7900 0001:0002EBF2  7901 0001:0002EC03
  7902 0001:0002EC0E  7903 0001:0002EC2D  7904 0001:0002EC3E  7905 0001:0002EC49
  7906 0001:0002EC53  7907 0001:0002EC5E  7908 0001:0002EC69  7909 0001:0002EC7A
  7911 0001:0002EC87  7913 0001:0002ECA1

Line numbers for StFilSys(StFilSys.pas) segment .text

    47 0001:0002ED28    58 0001:0002EE68   125 0001:0002F168   152 0001:0002F2BC
   153 0001:0002F2DF   154 0001:0002F2EA   156 0001:0002F300   157 0001:0002F312
   158 0001:0002F318   159 0001:0002F335   160 0001:0002F346   161 0001:0002F36D
   154 0001:0002F370   162 0001:0002F392   169 0001:0002F398   170 0001:0002F3DA
   171 0001:0002F3E1   172 0001:0002F3F1   173 0001:0002F407   175 0001:0002F40D
   176 0001:0002F430   178 0001:0002F446   179 0001:0002F44C   180 0001:0002F461
   181 0001:0002F4C7   186 0001:0002F4CC   187 0001:0002F4E7   188 0001:0002F4F1
   189 0001:0002F515   192 0001:0002F51C   193 0001:0002F523   194 0001:0002F52E
   199 0001:0002F534   200 0001:0002F53D   201 0001:0002F544   204 0001:0002F548
   206 0001:0002F54F   209 0001:0002F554   210 0001:0002F577   213 0001:0002F5B2
   214 0001:0002F5C2   216 0001:0002F5EF   222 0001:0002F5F4   223 0001:0002F603
   224 0001:0002F614   227 0001:0002F61C   228 0001:0002F623   231 0001:0002F628
   232 0001:0002F630   233 0001:0002F642   239 0001:0002F648   240 0001:0002F663
   241 0001:0002F670   242 0001:0002F693   243 0001:0002F6B6   244 0001:0002F6C1
   245 0001:0002F6EA   248 0001:0002F6F0   249 0001:0002F701   250 0001:0002F70C
   251 0001:0002F721   252 0001:0002F72B   253 0001:0002F734   254 0001:0002F745
   255 0001:0002F761   259 0001:0002F768   260 0001:0002F777   261 0001:0002F785
   262 0001:0002F79F   263 0001:0002F7AC   268 0001:0002F7B0   269 0001:0002F7D3
   270 0001:0002F7E8   272 0001:0002F82A   273 0001:0002F842   275 0001:0002F87F
   277 0001:0002F885   278 0001:0002F89B   280 0001:0002F8C6   283 0001:0002F8E0
   284 0001:0002F8EC   286 0001:0002F8F5   287 0001:0002F8FE   288 0001:0002F90F
   290 0001:0002F91A   291 0001:0002F928   292 0001:0002F93A   293 0001:0002F951
   299 0001:0002F958   300 0001:0002F977   302 0001:0002F986   304 0001:0002F98F
   305 0001:0002F99F   306 0001:0002F9AF   307 0001:0002F9B8   308 0001:0002F9C9
   310 0001:0002F9D4   311 0001:0002F9DD   313 0001:0002F9E6   314 0001:0002F9F4
   315 0001:0002FA09   318 0001:0002FA20   319 0001:0002FA43   322 0001:0002FA87
   330 0001:0002FAAC   331 0001:0002FAC7   332 0001:0002FAD5   333 0001:0002FADE
   334 0001:0002FAE7   335 0001:0002FAFA   336 0001:0002FB0F   337 0001:0002FB15
   338 0001:0002FB49   339 0001:0002FB5A   340 0001:0002FB63   342 0001:0002FB97
   343 0001:0002FBB5   344 0001:0002FBE1   347 0001:0002FBE8   348 0001:0002FBF9
   350 0001:0002FC02   351 0001:0002FC13   352 0001:0002FC28   353 0001:0002FC3A
   355 0001:0002FC42   356 0001:0002FC5E   359 0001:0002FC64   360 0001:0002FC68
   361 0001:0002FC80   362 0001:0002FC96   367 0001:0002FC9C   368 0001:0002FCB8
   369 0001:0002FCC6   370 0001:0002FCCC   371 0001:0002FCF1   376 0001:0002FCF8
   377 0001:0002FD10   378 0001:0002FD1A   379 0001:0002FD47   382 0001:0002FD4C
   383 0001:0002FD5D   384 0001:0002FD68   385 0001:0002FD84   391 0001:0002FD88
   392 0001:0002FDAE   393 0001:0002FDBF   394 0001:0002FDC5   397 0001:0002FDD8
   399 0001:0002FDF7   400 0001:0002FE25   402 0001:0002FE64   416 0001:0002FE7C
   417 0001:0002FE82   418 0001:0002FEAC   420 0001:0002FEB0   421 0001:0002FED3
   422 0001:0002FEDB   423 0001:0002FEE9   424 0001:0002FEEF   426 0001:0002FF2E
   427 0001:0002FF52   433 0001:0002FF5C   434 0001:0002FF68   435 0001:0002FF79
   437 0001:0002FF7F   438 0001:0002FF90   439 0001:0002FF9B   440 0001:0002FFA5
   443 0001:0002FFAC   444 0001:0002FFBB   445 0001:0002FFC2   448 0001:0002FFC8
   449 0001:0002FFD4   450 0001:0002FFDB   453 0001:0002FFE0   454 0001:0002FFE9
   455 0001:0002FFF0   458 0001:0002FFF4   459 0001:00030000   460 0001:00030007
   463 0001:0003000C   464 0001:00030018   465 0001:0003002E   468 0001:00030034
   469 0001:00030043   470 0001:0003004E   473 0001:00030054   474 0001:00030063
   475 0001:0003006E   478 0001:00030074   479 0001:00030080   480 0001:0003008D
   485 0001:000300B8   486 0001:000300CB   489 0001:000300F3   490 0001:00030104
   491 0001:0003011B   492 0001:00030135   494 0001:0003013E   495 0001:00030145
   498 0001:0003016C   503 0001:00030180   504 0001:00030193   507 0001:000301BB
   508 0001:000301C2   509 0001:000301CC   511 0001:000301F7   513 0001:00030248
   513 0001:0003024F

Line numbers for StringsEdit(StringsEdit.pas) segment .text

    45 0001:00030468    46 0001:00030471    47 0001:00030480    51 0001:00030484
    52 0001:00030494    53 0001:000304AF    59 0001:000304B8    60 0001:000304DA
    61 0001:000304F2    62 0001:00030509    63 0001:00030522    64 0001:00030533
    65 0001:00030590    68 0001:000305A4    70 0001:000305B0    71 0001:000305C3
    72 0001:000305D6    75 0001:000305DC    76 0001:000305E5    77 0001:000305FA
    80 0001:00030600    81 0001:0003060C    82 0001:00030623    84 0001:00030658
    84 0001:0003065F

Line numbers for ValueEdit(ValueEdit.pas) segment .text

    39 0001:00030894    40 0001:0003089D    41 0001:000308AC    44 0001:000308B0
    45 0001:000308B9    46 0001:000308CD    49 0001:000308D4    50 0001:000308E0
    51 0001:000308F4    54 0001:000308F8    56 0001:00030904    57 0001:0003091C
    61 0001:00030920    63 0001:00030930    64 0001:0003094B    66 0001:00030984
    66 0001:0003098B

Line numbers for StrEdit(StrEdit.pas) segment .text

    99 0001:00030DCC   110 0001:00030F68   115 0001:00031038   116 0001:00031053
   117 0001:0003105D   118 0001:0003106B   119 0001:00031095   122 0001:0003109C
   123 0001:000310A5   124 0001:000310B7   127 0001:000310BC   128 0001:000310C8
   129 0001:000310D6   135 0001:000310DC   136 0001:000310F7   137 0001:00031101
   138 0001:0003110F   139 0001:00031118   140 0001:00031142   143 0001:00031148
   144 0001:00031159   145 0001:00031164   146 0001:00031180   149 0001:00031184
   151 0001:00031190   154 0001:00031194   155 0001:000311A0   156 0001:000311A8
   159 0001:000311AC   160 0001:000311B8   161 0001:000311C5   164 0001:000311DC
   165 0001:000311E5   166 0001:000311EC   169 0001:000311F0   170 0001:000311FC
   171 0001:00031209   174 0001:00031234   175 0001:00031240   176 0001:00031248
   179 0001:0003124C   180 0001:00031258   181 0001:00031266   184 0001:0003126C
   185 0001:00031278   186 0001:00031280   189 0001:00031284   190 0001:0003128D
   191 0001:00031294   194 0001:00031298   195 0001:000312A4   196 0001:000312AC
   199 0001:000312B0   200 0001:000312B9   201 0001:000312C0   204 0001:000312C4
   205 0001:000312CD   206 0001:000312D4   209 0001:000312D8   210 0001:000312E1
   211 0001:000312E8   215 0001:000312EC   216 0001:000312FB   217 0001:00031303
   221 0001:0003130C   222 0001:0003131B   223 0001:0003134A   227 0001:00031350
   228 0001:0003135F   229 0001:00031367   234 0001:00031370   235 0001:0003138F
   236 0001:0003139B   237 0001:000313E4   240 0001:000313E8   241 0001:0003140A
   242 0001:0003142F   243 0001:0003143B   244 0001:00031489   250 0001:00031490
   251 0001:00031499   252 0001:000314B3   255 0001:000314B8   256 0001:000314C1
   257 0001:000314E4   260 0001:000314F0   261 0001:000314F9   262 0001:00031507
   265 0001:0003150C   266 0001:00031518   267 0001:00031523   278 0001:00031528
   279 0001:00031557   280 0001:00031564   281 0001:00031579   285 0001:000315B5
   287 0001:000315F5   288 0001:00031605   289 0001:0003160D   290 0001:0003161F
   292 0001:00031639   293 0001:00031644   294 0001:00031652   296 0001:00031667
   297 0001:00031671   298 0001:00031686   299 0001:0003169B   300 0001:000316B0
   301 0001:000316C8   306 0001:000316E2   307 0001:000316E7   308 0001:000316F8
   309 0001:0003170B   310 0001:00031717   311 0001:00031720   313 0001:0003174D
   315 0001:00031753   316 0001:00031777   317 0001:00031788   318 0001:00031795
   319 0001:000317A1   320 0001:000317A9   325 0001:000317BE   327 0001:0003181B
   331 0001:00031830   332 0001:0003183C   333 0001:00031851   336 0001:00031858
   337 0001:00031864   338 0001:00031871   344 0001:00031878   345 0001:00031881
   346 0001:0003189B   349 0001:000318D0   349 0001:000318D7

Line numbers for LibHelp(LibHelp.pas) segment .text

   194 0001:00039B00   194 0001:00039B07

Line numbers for EditorViewSupport(EditorViewSupport.pas) segment .text

   166 0001:0003B0C4   167 0001:0003B0DF   168 0001:0003B0E9   169 0001:0003B0F2
   170 0001:0003B100   171 0001:0003B128   174 0001:0003B130   175 0001:0003B139
   176 0001:0003B14F   181 0001:0003B164   182 0001:0003B180   183 0001:0003B189
   184 0001:0003B1A7   185 0001:0003B1B5   186 0001:0003B1DE   191 0001:0003B1F4
   192 0001:0003B200   193 0001:0003B21E   196 0001:0003B224   197 0001:0003B230
   198 0001:0003B245   199 0001:0003B256   202 0001:0003B25C   203 0001:0003B265
   204 0001:0003B274   207 0001:0003B278   208 0001:0003B290   209 0001:0003B29A
   210 0001:0003B2C7   213 0001:0003B2CC   214 0001:0003B2DD   215 0001:0003B2E8
   216 0001:0003B304   221 0001:0003B308   222 0001:0003B314   223 0001:0003B326
   224 0001:0003B33C   222 0001:0003B34D   225 0001:0003B353   228 0001:0003B358
   229 0001:0003B367   230 0001:0003B380   233 0001:0003B384   234 0001:0003B3A7
   235 0001:0003B3AF   236 0001:0003B3F3   239 0001:0003B408   240 0001:0003B414
   241 0001:0003B42D   246 0001:0003B434   247 0001:0003B440   248 0001:0003B452
   249 0001:0003B46A   247 0001:0003B47B   250 0001:0003B481   253 0001:0003B488
   254 0001:0003B494   255 0001:0003B4A2   264 0001:0003B4B0   265 0001:0003B4CC
   267 0001:0003B4EE   268 0001:0003B50F   269 0001:0003B53F   272 0001:0003B564
   273 0001:0003B56B   274 0001:0003B574   275 0001:0003B581   278 0001:0003B584
   279 0001:0003B588   280 0001:0003B591   281 0001:0003B5A2   282 0001:0003B5AD
   287 0001:0003B5B0   288 0001:0003B5CF   289 0001:0003B5E4   291 0001:0003B5EA
   292 0001:0003B5FA   294 0001:0003B624   301 0001:0003B628   302 0001:0003B658
   304 0001:0003B692   305 0001:0003B698   306 0001:0003B6DE   313 0001:0003B6F4
   314 0001:0003B722   315 0001:0003B726   316 0001:0003B73C   317 0001:0003B754
   319 0001:0003B77F   320 0001:0003B783   321 0001:0003B785   316 0001:0003B788
   322 0001:0003B7B5   327 0001:0003B7CC   328 0001:0003B7F9   329 0001:0003B80E
   330 0001:0003B814   331 0001:0003B852   335 0001:0003B858   336 0001:0003B86F
   337 0001:0003B88C   342 0001:0003B8A0   343 0001:0003B8BC   345 0001:0003B8E7
   346 0001:0003B8ED   347 0001:0003B918   352 0001:0003B91C   353 0001:0003B928
   354 0001:0003B930   358 0001:0003B934   360 0001:0003B943   364 0001:0003B948
   365 0001:0003B957   366 0001:0003B95E   369 0001:0003B964   370 0001:0003B973
   371 0001:0003B981   374 0001:0003B98C   375 0001:0003B995   376 0001:0003B9A0
   379 0001:0003B9A8   380 0001:0003B9B4   381 0001:0003B9BB   384 0001:0003B9C0
   385 0001:0003B9C9   386 0001:0003B9D3   390 0001:0003B9D8   391 0001:0003BA10
   388 0001:0003BA14   389 0001:0003BA1E

Line numbers for FileIntf(FileIntf.pas) segment .text

    83 0001:0003BB14    83 0001:0003BB1B

Line numbers for ToolIntf(ToolIntf.pas) segment .text

   518 0001:0003C298   518 0001:0003C29F

Line numbers for ExptIntf(ExptIntf.pas) segment .text

   143 0001:0003C3E8   144 0001:0003C3EF   145 0001:0003C3F8   146 0001:0003C401
   148 0001:0003C434   148 0001:0003C43B

Line numbers for VCLEditors(VCLEditors.pas) segment .text

    80 0001:0003D734   131 0001:0003DA10   152 0001:0003DBA4   173 0001:0003DD40
   194 0001:0003DEDC   384 0001:0003E650   386 0001:0003E676   387 0001:0003E67D
   388 0001:0003E696   390 0001:0003E6B1   391 0001:0003E6B7   392 0001:0003E6B9
   387 0001:0003E6BC   395 0001:0003E6C1   397 0001:0003E6C7   398 0001:0003E6D4
   401 0001:0003E6F1   403 0001:0003E703   405 0001:0003E71E   406 0001:0003E723
   408 0001:0003E735   409 0001:0003E739   410 0001:0003E753   412 0001:0003E76A
   413 0001:0003E76E   414 0001:0003E770   409 0001:0003E773   415 0001:0003E778
   417 0001:0003E77E   418 0001:0003E790   420 0001:0003E793   406 0001:0003E796
   423 0001:0003E79B   425 0001:0003E7B5   426 0001:0003E7D1   427 0001:0003E7DC
   428 0001:0003E7E5   429 0001:0003E7F3   430 0001:0003E818   432 0001:0003E82F
   433 0001:0003E845   434 0001:0003E853   436 0001:0003E865   437 0001:0003E873
   439 0001:0003E880   430 0001:0003E883   442 0001:0003E888   443 0001:0003E89A
   444 0001:0003E8CB   447 0001:0003E8D4   448 0001:0003E8E0   453 0001:0003E8E4
   454 0001:0003E8ED   455 0001:0003E906   456 0001:0003E92A   457 0001:0003E943
   459 0001:0003E94E   460 0001:0003E955   461 0001:0003E95F   455 0001:0003E962
   461 0001:0003E967   454 0001:0003E96A   462 0001:0003E96F   463 0001:0003E978
   464 0001:0003E97E   470 0001:0003E984   471 0001:0003E98D   472 0001:0003E99A
   474 0001:0003E9B7   475 0001:0003E9BC   477 0001:0003E9E0   478 0001:0003E9F9
   480 0001:0003E9FF   481 0001:0003EA1B   482 0001:0003EA1E   475 0001:0003EA21
   483 0001:0003EA26   484 0001:0003EA2C   485 0001:0003EA51   472 0001:0003EA54
   486 0001:0003EA5D   498 0001:0003EA64   499 0001:0003EA86   500 0001:0003EA98
   502 0001:0003EAB0   503 0001:0003EABE   504 0001:0003EAEB   500 0001:0003EAEE
   505 0001:0003EAF3   506 0001:0003EB18   510 0001:0003EB1C   511 0001:0003EB2E
   512 0001:0003EB3F   513 0001:0003EB50   516 0001:0003EB5E   517 0001:0003EB6E
   521 0001:0003EB7E   522 0001:0003EB8A   523 0001:0003EB9A   525 0001:0003EBAA
   526 0001:0003EBD2   529 0001:0003EC09   530 0001:0003EC13   531 0001:0003EC1D
   532 0001:0003EC24   533 0001:0003EC2B   535 0001:0003EC35   537 0001:0003EC40
   538 0001:0003EC62   542 0001:0003EC70   543 0001:0003EC75   544 0001:0003EC8E
   545 0001:0003ECA0   546 0001:0003ECBA   548 0001:0003ECCB   549 0001:0003ECD4
   550 0001:0003ECD6   545 0001:0003ECD9   550 0001:0003ECDE   543 0001:0003ECE1
   551 0001:0003ECE6   553 0001:0003ECF0   554 0001:0003ECFD   555 0001:0003ED0B
   556 0001:0003ED42   558 0001:0003ED4C   560 0001:0003ED5D   561 0001:0003ED6B
   562 0001:0003ED79   563 0001:0003ED87   564 0001:0003ED95   565 0001:0003EDA3
   566 0001:0003EDB4   567 0001:0003EDC6   568 0001:0003EDD7   571 0001:0003EDF8
   572 0001:0003EE06   573 0001:0003EE14   580 0001:0003EE4C   583 0001:0003EE7C
   592 0001:0003EE80   593 0001:0003EE8C   594 0001:0003EE94   595 0001:0003EEA6
   596 0001:0003EEB1   600 0001:0003EEB8   601 0001:0003EEDB   602 0001:0003EF20
   606 0001:0003EF28   607 0001:0003EF4B   608 0001:0003EF90   612 0001:0003EF98
   613 0001:0003EFA7   614 0001:0003EFC4   620 0001:0003EFCC   621 0001:0003EFD5
   622 0001:0003EFE3   627 0001:0003EFEC   628 0001:0003F009   629 0001:0003F06F
   635 0001:0003F078   636 0001:0003F09B   640 0001:0003F0A4   643 0001:0003F0B2
   644 0001:0003F0C0   647 0001:0003F0DF   650 0001:0003F0EF   651 0001:0003F11E
   657 0001:0003F128   658 0001:0003F14B   662 0001:0003F154   665 0001:0003F162
   666 0001:0003F170   669 0001:0003F183   671 0001:0003F1AE   677 0001:0003F1B8
   678 0001:0003F1DB   682 0001:0003F1E4   685 0001:0003F1F2   686 0001:0003F200
   689 0001:0003F213   691 0001:0003F23E   696 0001:0003F248   697 0001:0003F251
   698 0001:0003F25F   701 0001:0003F268   702 0001:0003F274   703 0001:0003F28D
   704 0001:0003F2AE   707 0001:0003F2C0   708 0001:0003F2C7   709 0001:0003F2D2
   714 0001:0003F2D8   715 0001:0003F2E4   716 0001:0003F2F3   717 0001:0003F300
   718 0001:0003F30B   723 0001:0003F310   724 0001:0003F319   725 0001:0003F327
   730 0001:0003F330   731 0001:0003F34D   732 0001:0003F3B3   739 0001:0003F3BC
   740 0001:0003F3DB   741 0001:0003F3F2   742 0001:0003F40B   743 0001:0003F41B
   744 0001:0003F425   746 0001:0003F437   747 0001:0003F445   749 0001:0003F474
   751 0001:0003F4A9   754 0001:0003F4B4   755 0001:0003F4BD   756 0001:0003F4CB
   766 0001:0003F4D4   767 0001:0003F4EA   768 0001:0003F4F3   769 0001:0003F50B
   770 0001:0003F519   773 0001:0003F54C   774 0001:0003F56E   780 0001:0003F574
   781 0001:0003F594   783 0001:0003F5A1   785 0001:0003F5C3   786 0001:0003F5D7
   787 0001:0003F5E7   789 0001:0003F5ED   790 0001:0003F602   793 0001:0003F638
   782 0001:0003F63B   794 0001:0003F66A   796 0001:0003F67C   797 0001:0003F685
   798 0001:0003F68A   799 0001:0003F6A1   800 0001:0003F6AF   801 0001:0003F6B6
   802 0001:0003F6C4   803 0001:0003F6CE   804 0001:0003F6DA   805 0001:0003F6F4
   807 0001:0003F708   808 0001:0003F710   810 0001:0003F720   813 0001:0003F728
   814 0001:0003F731   815 0001:0003F73F   818 0001:0003F748   819 0001:0003F754
   820 0001:0003F764   823 0001:0003F768   824 0001:0003F76F   825 0001:0003F77A
   829 0001:0003F780   830 0001:0003F7A6   831 0001:0003F7B7   833 0001:0003F7D8
   834 0001:0003F808   846 0001:0003F810   847 0001:0003F819   850 0001:0003F82B
   851 0001:0003F832   852 0001:0003F83B   854 0001:0003F844   855 0001:0003F84D
   859 0001:0003F854   860 0001:0003F863   864 0001:0003F877   865 0001:0003F885
   868 0001:0003F893   869 0001:0003F8AB   872 0001:0003F8C9   873 0001:0003F8DE
   874 0001:0003F902   877 0001:0003F924   878 0001:0003F932   879 0001:0003F940
   882 0001:0003F971   886 0001:0003F978   887 0001:0003F987   888 0001:0003F999
   893 0001:0003F9AC   894 0001:0003F9B8   895 0001:0003F9C7   897 0001:0003F9D4
   898 0001:0003F9DF   902 0001:0003F9E4   904 0001:0003F9F3   908 0001:0003F9FC
   909 0001:0003FA0B   910 0001:0003FA19   916 0001:0003FA20   917 0001:0003FA46
   918 0001:0003FA57   920 0001:0003FA7A   921 0001:0003FAAA   929 0001:0003FAB4
   930 0001:0003FAC3   934 0001:0003FAD7   935 0001:0003FAE5   936 0001:0003FAF3
   939 0001:0003FB01   940 0001:0003FB19   941 0001:0003FB29   944 0001:0003FB47
   945 0001:0003FB57   948 0001:0003FB78   950 0001:0003FB87   951 0001:0003FB97
   954 0001:0003FBA6   957 0001:0003FBB6   960 0001:0003FBD8   961 0001:0003FBE6
   962 0001:0003FBF4   963 0001:0003FC02   966 0001:0003FC33   970 0001:0003FC3C
   971 0001:0003FC4B   972 0001:0003FC5D   976 0001:0003FC70   978 0001:0003FC7F
   982 0001:0003FC88   983 0001:0003FC97   984 0001:0003FCA5   990 0001:0003FCAC
   991 0001:0003FCD2   992 0001:0003FCE3   994 0001:0003FD06   995 0001:0003FD36
  1003 0001:0003FD40  1004 0001:0003FD4F  1005 0001:0003FD65  1009 0001:0003FD81
  1010 0001:0003FD8F  1011 0001:0003FD9D  1014 0001:0003FDAB  1015 0001:0003FDC3
  1018 0001:0003FDE1  1019 0001:0003FDF1  1020 0001:0003FE01  1023 0001:0003FE23
  1024 0001:0003FE33  1025 0001:0003FE54  1026 0001:0003FE65  1027 0001:0003FE74
  1028 0001:0003FE86  1031 0001:0003FE96  1032 0001:0003FEA4  1033 0001:0003FEB2
  1034 0001:0003FEC0  1037 0001:0003FEF1  1041 0001:0003FEF8  1042 0001:0003FF07
  1043 0001:0003FF1B  1047 0001:0003FF30  1049 0001:0003FF3F  1053 0001:0003FF48
  1054 0001:0003FF57  1055 0001:0003FF65  1060 0001:0003FF6C  1061 0001:0003FF75
  1062 0001:0003FF83  1065 0001:0003FF8C  1066 0001:0003FF98  1067 0001:0003FFA8
  1070 0001:0003FFAC  1071 0001:0003FFB3  1072 0001:0003FFBE  1077 0001:0003FFC4
  1078 0001:0003FFD0  1079 0001:0003FFDF  1080 0001:0003FFEC  1081 0001:0003FFF7
  1089 0001:0003FFFC  1090 0001:0004000B  1093 0001:0004001D  1094 0001:0004002C
  1095 0001:00040037  1096 0001:00040042  1097 0001:00040054  1098 0001:0004005A
  1100 0001:00040089  1103 0001:000400BA  1107 0001:000400C0  1108 0001:000400CF
  1109 0001:000400E3  1113 0001:000400EC  1114 0001:000400FB  1115 0001:00040120
  1122 0001:00040134  1123 0001:0004013D  1124 0001:00040154  1125 0001:00040162
  1126 0001:00040174  1127 0001:0004017E  1128 0001:00040193  1130 0001:000401BA
  1132 0001:000401CA  1135 0001:000401D4  1136 0001:000401DD  1137 0001:000401EB
  1156 0001:000402B4  1157 0001:000402BD  1158 0001:000402CB  1163 0001:000402D4
  1164 0001:000402E0  1165 0001:000402EB  1167 0001:000402F3  1169 0001:00040307
  1171 0001:00040312  1176 0001:00040318  1177 0001:00040321  1178 0001:0004033F
  1183 0001:00040348  1184 0001:00040354  1186 0001:0004035A  1187 0001:00040364
  1189 0001:00040366  1190 0001:0004036B  1192 0001:00040381  1193 0001:0004038C
  1194 0001:0004038E  1189 0001:00040391  1195 0001:00040397  1196 0001:000403A2
  1313 0001:000403A8  1314 0001:000403B1  1315 0001:000403BF  1320 0001:000403C8
  1321 0001:000403D4  1322 0001:000403E0  1323 0001:000403E7  1324 0001:000403F6
  1325 0001:00040402  1330 0001:00040408  1331 0001:00040427  1332 0001:0004043D
  1333 0001:0004048B  1338 0001:00040494  1339 0001:000404B3  1340 0001:000404B9
  1342 0001:000404DB  1343 0001:000404E7  1344 0001:000404EE  1346 0001:00040505
  1347 0001:0004052E  1352 0001:00040534  1353 0001:0004053D  1354 0001:0004054B
  1359 0001:00040554  1360 0001:0004055D  1361 0001:0004056B  1375 0001:00040574
  1376 0001:00040581  1377 0001:00040594  1378 0001:000405A0  1379 0001:000405B8
  1380 0001:000405C1  1381 0001:000405D2  1383 0001:000405D8  1384 0001:000405E2
  1385 0001:000405EC  1386 0001:000405FA  1387 0001:0004060A  1388 0001:00040616
  1389 0001:00040625  1391 0001:00040633  1392 0001:00040643  1393 0001:00040652
  1394 0001:00040658  1395 0001:00040663  1396 0001:00040665  1397 0001:0004066A
  1398 0001:0004067A  1400 0001:00040695  1403 0001:000406B2  1405 0001:000406C4
  1419 0001:000406CC  1420 0001:000406EF  1421 0001:000406FA  1422 0001:00040715
  1423 0001:00040723  1424 0001:0004076A  1426 0001:00040770  1427 0001:00040779
  1428 0001:00040788  1429 0001:00040796  1430 0001:000407AB  1431 0001:000407B7
  1432 0001:000407BD  1433 0001:000407C7  1434 0001:000407D5  1435 0001:000407E6
  1436 0001:000407F2  1437 0001:00040800  1439 0001:00040823  1442 0001:00040841
  1444 0001:00040853  1445 0001:0004085F  1447 0001:0004086A  1448 0001:00040879
  1449 0001:00040889  1450 0001:000408A2  1451 0001:000408A6  1452 0001:000408B6
  1453 0001:000408BC  1454 0001:000408C1  1456 0001:000408D8  1457 0001:000408E0
  1459 0001:000408EA  1460 0001:000408F0  1463 0001:0004090B  1464 0001:00040913
  1466 0001:00040920  1480 0001:00040928  1485 0001:00040A04  1486 0001:00040A26
  1487 0001:00040A51  1490 0001:00040A58  1491 0001:00040A70  1492 0001:00040A7A
  1493 0001:00040AB5  1496 0001:00040ABC  1497 0001:00040ADF  1498 0001:00040B1D
  1501 0001:00040B34  1502 0001:00040B3D  1503 0001:00040B4E  1510 0001:00040B54
  1511 0001:00040B77  1512 0001:00040B86  1513 0001:00040B9E  1514 0001:00040BC9
  1512 0001:00040BD7  1515 0001:00040BDC  1516 0001:00040C13  1521 0001:00040C28
  1522 0001:00040C34  1523 0001:00040C38  1524 0001:00040C65  1525 0001:00040C6F
  1526 0001:00040C79  1527 0001:00040C83  1528 0001:00040C8D  1529 0001:00040C97
  1531 0001:00040CA1  1533 0001:00040CA8  1536 0001:00040CAC  1537 0001:00040CC9
  1538 0001:00040CD3  1539 0001:00040CDF  1540 0001:00040CE4  1542 0001:00040CF3
  1543 0001:00040CF8  1544 0001:00040CFD  1546 0001:00040D02  1547 0001:00040D14
  1548 0001:00040D19  1549 0001:00040D3D  1550 0001:00040D64  1557 0001:00040D70
  1559 0001:00040DD7  1552 0001:00040DDC  1553 0001:00040DE8  1554 0001:00040DF8
  1556 0001:00040E02

Line numbers for DMForm(DMForm.pas) segment .text

    37 0001:00040E18    48 0001:000410A8    64 0001:00041334    65 0001:00041340
    66 0001:0004134C    67 0001:0004135A    69 0001:00041372    71 0001:00041386
    74 0001:0004138C    75 0001:00041398    76 0001:000413A4    77 0001:000413B2
    79 0001:000413CA    81 0001:000413DE    84 0001:000413E4    85 0001:000413F0
    86 0001:000413FB    88 0001:00041402    94 0001:00041408    95 0001:00041437
    96 0001:00041443    97 0001:0004144F    98 0001:0004145B   100 0001:0004146B
   101 0001:00041483   102 0001:00041494   103 0001:000414AC   105 0001:000414B8
   106 0001:000414C3   107 0001:000414D2   108 0001:000414DF   109 0001:000414EE
   110 0001:000414FB   111 0001:00041505   115 0001:00041512   116 0001:0004151A
   117 0001:00041522   118 0001:00041565   121 0001:0004156C   122 0001:0004157D
   123 0001:0004158E   124 0001:000415AA   132 0001:000415B0   133 0001:000415BA
   134 0001:000415DA   135 0001:000415EE   136 0001:000415FD   138 0001:00041615
   139 0001:0004162A   143 0001:00041641   144 0001:00041653   146 0001:00041665
   147 0001:00041680   148 0001:00041697   150 0001:000416AE   151 0001:000416C3
   154 0001:000416D8   155 0001:000416EF   156 0001:00041706   157 0001:0004171D
   162 0001:00041724   163 0001:00041730   164 0001:00041740   165 0001:0004174B
   166 0001:00041756   167 0001:00041765   169 0001:0004177D   170 0001:000417A6
   173 0001:000417E7   176 0001:000417EC   177 0001:000417F8   178 0001:00041803
   181 0001:00041808   182 0001:00041817   183 0001:00041825   184 0001:00041832
   187 0001:00041838   188 0001:00041847   189 0001:00041855   190 0001:0004185D
   193 0001:00041864   194 0001:00041873   197 0001:00041878   198 0001:00041887
   201 0001:0004188C   202 0001:00041898   203 0001:000418A6   204 0001:000418AE
   208 0001:000418B4   210 0001:000418C3   215 0001:000418C8   216 0001:000418D4
   218 0001:00041900   225 0001:00041918   226 0001:00041927   227 0001:0004193D
   228 0001:00041945   229 0001:00041952   232 0001:00041958   233 0001:00041961
   234 0001:0004196C   237 0001:00041970   238 0001:00041979   239 0001:00041988
   242 0001:0004198C   243 0001:00041995   244 0001:000419A4   246 0001:000419D8
   246 0001:000419DF

Line numbers for DesignWindows(DesignWindows.pas) segment .text

    63 0001:000419E0    70 0001:00041DE8    71 0001:00041E1A    72 0001:00041E27
    73 0001:00041E3F    74 0001:00041E50    75 0001:00041ED3    78 0001:00041ED8
    79 0001:00041EE9    80 0001:00041EFA    81 0001:00041F16    84 0001:00041F1C
    85 0001:00041F23    88 0001:00041F28    89 0001:00041F35    90 0001:00041F40
    91 0001:00041F54    92 0001:00041F60    93 0001:00041F6C    96 0001:00041F74
    97 0001:00041F81    98 0001:00041FA2   101 0001:00041FA8   102 0001:00041FC7
   103 0001:00041FD5   106 0001:0004202F   108 0001:00042058   116 0001:00042060
   117 0001:0004206F   118 0001:0004207E   119 0001:0004208C   120 0001:000420A3
   121 0001:000420B1   122 0001:000420BB   124 0001:000420D3   125 0001:000420DB
   126 0001:000420F0   122 0001:000420F3   127 0001:000420F8   129 0001:0004210D
   131 0001:0004211D   133 0001:00042132   135 0001:00042142   138 0001:00042148
   139 0001:00042151   140 0001:0004215F   143 0001:00042168   144 0001:00042174
   145 0001:0004217B   148 0001:00042180   149 0001:00042187   150 0001:00042190
   151 0001:000421A0   157 0001:000421A4   158 0001:000421AB   159 0001:000421B4
   160 0001:000421D5   163 0001:000421D8   164 0001:000421E4   165 0001:000421F5
   169 0001:000421FC   170 0001:0004221F   171 0001:00042247   172 0001:00042280
   179 0001:00042288   180 0001:00042297   181 0001:0004229F   182 0001:000422AD
   183 0001:000422C4   184 0001:000422D2   185 0001:000422E2   186 0001:000422EE
   187 0001:000422FE   189 0001:00042322   192 0001:0004233F   194 0001:0004234F
   198 0001:00042358   199 0001:00042367   202 0001:0004236C   203 0001:00042379
   204 0001:000423A1   207 0001:000423A8   209 0001:000423B7   212 0001:000423BC
   214 0001:000423CB   217 0001:000423D0   219 0001:000423DF   222 0001:000423E4
   224 0001:000423F3   227 0001:000423F8   229 0001:00042404   232 0001:00042408
   233 0001:0004242E   234 0001:00042480   236 0001:000424B8   236 0001:000424BF

Line numbers for ToolWnds(ToolWnds.pas) segment .text

    70 0001:000427D0    80 0001:000427DC    81 0001:000427EF    82 0001:00042803
    85 0001:00042808    86 0001:00042811    87 0001:00042825    90 0001:0004282C
    91 0001:00042838    92 0001:00042846    96 0001:0004284C    97 0001:0004285B
    98 0001:00042867    99 0001:00042870   100 0001:00042878   102 0001:00042883
   104 0001:0004288E   105 0001:00042896   107 0001:000428A1   108 0001:000428AA
   111 0001:000428B0   112 0001:000428BC   113 0001:000428D7   119 0001:000428DC
   120 0001:000428E8   122 0001:000428FA   124 0001:00042906   125 0001:00042917
   126 0001:00042925   128 0001:0004292B   129 0001:00042940   136 0001:0004295B
   137 0001:00042965   138 0001:00042970   140 0001:0004297B   141 0001:0004298F
   151 0001:0004299B   152 0001:000429A5   153 0001:000429B2   154 0001:000429BF
   155 0001:000429CC   158 0001:000429E3   159 0001:000429F7   162 0001:00042A07
   164 0001:00042A13   167 0001:00042A18   168 0001:00042A24   170 0001:00042A30
   171 0001:00042A56   172 0001:00042A6D   174 0001:00042A87   177 0001:00042A8C
   178 0001:00042A98   179 0001:00042AA4   180 0001:00042AB5   183 0001:00042ABC
   184 0001:00042AC8   185 0001:00042AE7   188 0001:00042AEC   189 0001:00042AF8
   190 0001:00042B15   192 0001:00042B4C   192 0001:00042B53

Line numbers for ColnEdit(ColnEdit.pas) segment .text

   136 0001:000430B4   137 0001:000430DF   138 0001:000430E8   139 0001:000430F9
   141 0001:00043111   143 0001:00043121   147 0001:00043160   148 0001:00043168
   149 0001:00043170   151 0001:00043175   139 0001:00043178   152 0001:0004317D
   153 0001:00043190   155 0001:0004319E   156 0001:000431A9   157 0001:000431B9
   158 0001:000431C5   159 0001:000431E8   160 0001:000431F4   161 0001:000431FF
   162 0001:00043207   164 0001:0004321E   166 0001:0004324B   170 0001:00043254
   171 0001:00043279   173 0001:000432B5   180 0001:000432C0   181 0001:000432DD
   183 0001:000432EC   182 0001:000432FB   184 0001:00043313   186 0001:00043369
   189 0001:00043370   190 0001:00043379   191 0001:00043387   194 0001:00043390
   195 0001:00043399   196 0001:000433A4   199 0001:000433A8   200 0001:000433B1
   201 0001:000433BC   206 0001:000433C4   207 0001:000433CB   208 0001:000433D9
   209 0001:000433E1   212 0001:000433E4   213 0001:000433F0   214 0001:000433FC
   215 0001:00043411   220 0001:00043418   221 0001:00043425   222 0001:00043429
   224 0001:00043431   223 0001:00043440   225 0001:00043460   226 0001:0004346D
   228 0001:00043474   229 0001:00043483   230 0001:0004349D   232 0001:000434EB
   233 0001:000434F5   234 0001:0004350C   235 0001:00043523   238 0001:00043528
   239 0001:00043537   240 0001:00043545   241 0001:0004354D   244 0001:00043554
   245 0001:0004355B   246 0001:00043565   247 0001:00043570   248 0001:0004357B
   249 0001:00043583   252 0001:00043588   253 0001:000435AA   254 0001:000435B6
   256 0001:000435C2   257 0001:000435CA   258 0001:000435EE   260 0001:0004361B
   263 0001:00043620   264 0001:00043644   265 0001:00043650   266 0001:0004365F
   267 0001:000436A4   268 0001:000436D7   271 0001:000436F0   272 0001:00043712
   274 0001:00043775   281 0001:000437C0   282 0001:000437DE   283 0001:000437E6
   284 0001:000437F4   286 0001:00043811   289 0001:00043821   290 0001:00043829
   291 0001:0004383A   292 0001:0004386A   295 0001:000438B6   297 0001:000438E0
   298 0001:000438E8   299 0001:000438F6   301 0001:0004390B   302 0001:0004392F
   303 0001:00043935   304 0001:00043961   305 0001:00043972   299 0001:00043975
   307 0001:00043988   309 0001:000439B5   312 0001:000439BC   313 0001:000439C3
   314 0001:000439CC   318 0001:000439D0   319 0001:000439DF   322 0001:000439E4
   323 0001:00043A06   325 0001:00043A19   326 0001:00043A29   328 0001:00043AA4
   334 0001:00043AA8   335 0001:00043AC7   336 0001:00043AD7   337 0001:00043AE5
   339 0001:00043AFE   340 0001:00043B06   341 0001:00043B14   342 0001:00043B38
   344 0001:00043B5D   345 0001:00043B78   346 0001:00043B9A   341 0001:00043B9D
   347 0001:00043BA2   350 0001:00043BB5   352 0001:00043BDB   353 0001:00043BE5
   354 0001:00043BF8   356 0001:00043C22   359 0001:00043C2C   360 0001:00043C33
   361 0001:00043C3C   370 0001:00043C40   371 0001:00043C5C   372 0001:00043C7C
   373 0001:00043C8A   374 0001:00043CBA   375 0001:00043CEA   376 0001:00043D19
   377 0001:00043D47   378 0001:00043D67   379 0001:00043D8F   380 0001:00043DA0
   381 0001:00043DBE   382 0001:00043DE5   383 0001:00043E4C   381 0001:00043E4F
   385 0001:00043E61   387 0001:00043E93   392 0001:00043EF4   393 0001:00043F0F
   399 0001:00043FA8   400 0001:00043FB9   402 0001:00043FC8   403 0001:00043FD7
   404 0001:00043FF3   406 0001:0004400D   407 0001:0004402A   409 0001:00044037
   403 0001:0004403A   410 0001:00044041   411 0001:0004405B   412 0001:00044066
   413 0001:00044075   417 0001:00044088   419 0001:000440AF   425 0001:000440B8
   426 0001:000440D9   427 0001:000440EC   428 0001:00044111   430 0001:00044126
   431 0001:00044135   432 0001:00044159   431 0001:0004417C   433 0001:00044181
   434 0001:000441A3   427 0001:000441A6   436 0001:000441D1   441 0001:000441D8
   442 0001:000441FE   443 0001:00044202   444 0001:0004421C   446 0001:00044238
   448 0001:00044260   449 0001:00044283   450 0001:000442C1   448 0001:000442C4
   454 0001:000442C9   444 0001:000442CC   455 0001:000442D5   456 0001:000442FE
   460 0001:00044304   461 0001:00044324   462 0001:00044334   463 0001:0004433C
   464 0001:0004434A   465 0001:00044359   466 0001:00044363   467 0001:00044371
   469 0001:0004439E   470 0001:000443B2   471 0001:000443C0   472 0001:000443C7
   473 0001:000443DB   474 0001:000443F7   476 0001:0004440E   477 0001:00044427
   478 0001:00044447   477 0001:0004446E   479 0001:00044473   473 0001:00044476
   481 0001:0004448C   485 0001:000444B5   486 0001:000444CD   485 0001:000444E0
   487 0001:000444E5   490 0001:00044502   492 0001:00044534   498 0001:0004453C
   499 0001:00044548   500 0001:00044552   501 0001:00044560   502 0001:0004456E
   503 0001:00044580   505 0001:0004458E   506 0001:000445A1   508 0001:000445AB
   510 0001:000445DC   512 0001:000445F2   513 0001:000445FA   515 0001:00044608
   516 0001:00044636   517 0001:00044645   518 0001:0004464F   523 0001:00044654
   524 0001:00044661   525 0001:0004466F   526 0001:0004467D   527 0001:0004468D
   528 0001:0004469F   529 0001:000446B7   530 0001:000446BE   531 0001:000446E3
   532 0001:000446F3   533 0001:00044708   534 0001:00044725   535 0001:0004474A
   533 0001:00044763   537 0001:00044776   539 0001:0004478C   540 0001:00044794
   541 0001:000447AD   542 0001:000447C5   543 0001:000447E4   544 0001:0004480B
   545 0001:00044813   546 0001:00044821   549 0001:00044828   551 0001:00044834
   554 0001:00044838   555 0001:0004485B   556 0001:00044863   557 0001:000448AB
   563 0001:000448B0   564 0001:000448D6   565 0001:000448E2   566 0001:000448F9
   567 0001:00044916   568 0001:00044924   569 0001:00044935   570 0001:00044952
   571 0001:0004496F   572 0001:0004498E   573 0001:000449B1   574 0001:000449D5
   575 0001:00044A1B   573 0001:00044A1E   577 0001:00044A30   579 0001:00044A40
   580 0001:00044A46   581 0001:00044A70   587 0001:00044AD4   588 0001:00044AE1
   591 0001:00044B23   593 0001:00044B2A   592 0001:00044B2D   594 0001:00044B52
   596 0001:00044B5B   597 0001:00044B69   598 0001:00044B77   599 0001:00044B9B
   601 0001:00044BC0   602 0001:00044BD9   603 0001:00044BDC   598 0001:00044BDF
   605 0001:00044BF1   607 0001:00044C07   608 0001:00044C0F   609 0001:00044C1D
   614 0001:00044C24   615 0001:00044C31   618 0001:00044C73   620 0001:00044C8D
   619 0001:00044C90   621 0001:00044CB5   623 0001:00044CD2   624 0001:00044CE0
   625 0001:00044CEE   626 0001:00044D0B   628 0001:00044D30   629 0001:00044D49
   630 0001:00044D4C   625 0001:00044D4F   632 0001:00044D62   634 0001:00044D78
   635 0001:00044D80   636 0001:00044D8E   642 0001:00044D94   643 0001:00044DA3
   644 0001:00044DBA   646 0001:00044DEA   654 0001:00044DF0   655 0001:00044DFF
   656 0001:00044E16   657 0001:00044E20   659 0001:00044E2B   660 0001:00044E3A
   661 0001:00044E48   662 0001:00044E6C   663 0001:00044E91   661 0001:00044EAF
   665 0001:00044EB4   666 0001:00044EC2   667 0001:00044ED0   668 0001:00044EE6
   670 0001:00044EF4   671 0001:00044EFF   672 0001:00044F0A   673 0001:00044F22
   674 0001:00044F25   667 0001:00044F28   676 0001:00044F3A   679 0001:00044F5D
   681 0001:00044F6D   682 0001:00044F75   683 0001:00044F83   687 0001:00044F8C
   688 0001:00044F98   689 0001:00044FAD   690 0001:00044FBA   693 0001:00044FC0
   694 0001:00044FCC   695 0001:00044FDA   696 0001:00044FE3   697 0001:00044FF0
   700 0001:00044FF4   703 0001:00045000   709 0001:00045004   710 0001:00045013
   711 0001:00045025   712 0001:00045047   713 0001:0004505E   716 0001:00045064
   717 0001:00045070   719 0001:0004507C   720 0001:00045085   722 0001:0004508F
   725 0001:0004509E   726 0001:000450BF   729 0001:000450C4   730 0001:000450D0
   731 0001:000450DA   736 0001:000450E0   737 0001:000450EC   738 0001:00045100
   739 0001:00045106   740 0001:00045114   741 0001:00045126   742 0001:00045142
   743 0001:00045152   744 0001:00045168   747 0001:0004516C   748 0001:00045178
   749 0001:000451A6   754 0001:000451AC   755 0001:000451B8   756 0001:000451C0
   757 0001:000451D4   758 0001:000451E2   759 0001:00045206   758 0001:0004522C
   761 0001:0004523E   762 0001:00045252   763 0001:0004525A   765 0001:00045270
   770 0001:00045274   771 0001:00045280   772 0001:00045288   773 0001:0004529C
   774 0001:000452AA   775 0001:000452CE   774 0001:000452F4   777 0001:00045306
   778 0001:0004531A   779 0001:00045322   781 0001:00045338   785 0001:0004533C
   786 0001:0004535F   788 0001:0004536A   789 0001:00045398   791 0001:000453BB
   794 0001:000453C0   795 0001:000453CC   796 0001:000453D3   802 0001:000453D8
   803 0001:000453FB   804 0001:00045417   798 0001:0004541C   799 0001:00045428
   801 0001:0004543C

Line numbers for OCXReg(OCXReg.pas) segment .text

   108 0001:0005ABA0   109 0001:0005ABD2   111 0001:0005ABE0   112 0001:0005ABFB
   114 0001:0005AC01   115 0001:0005AC09   117 0001:0005AC0F   118 0001:0005AC2B
   115 0001:0005AC33   122 0001:0005AC39   123 0001:0005AC76   129 0001:0005AC8C
   130 0001:0005ACBD   131 0001:0005ACCE   132 0001:0005AD18   135 0001:0005AD20
   136 0001:0005AD31   137 0001:0005AD3C   138 0001:0005AD58   141 0001:0005AD5C
   142 0001:0005AD6B   143 0001:0005AD79   144 0001:0005AD82   146 0001:0005AD8F
   148 0001:0005ADAC   149 0001:0005ADBF   150 0001:0005ADD8   152 0001:0005ADF1
   155 0001:0005ADFB   158 0001:0005AE04   159 0001:0005AE0B   160 0001:0005AE18
   163 0001:0005AE1C   164 0001:0005AE28   165 0001:0005AE40   168 0001:0005AE44
   169 0001:0005AE54   170 0001:0005AE65   177 0001:0005AE6C   178 0001:0005AE8E
   179 0001:0005AE9F   183 0001:0005AF2F   184 0001:0005AF4F   185 0001:0005AFAA
   189 0001:0005AFC0   190 0001:0005AFCC   191 0001:0005AFD1   193 0001:0005AFEF
   194 0001:0005B001   195 0001:0005B00B   196 0001:0005B01D   198 0001:0005B028
   203 0001:0005B02C   204 0001:0005B035   205 0001:0005B043   208 0001:0005B04C
   209 0001:0005B058   211 0001:0005B077   217 0001:0005B07C   218 0001:0005B099
   219 0001:0005B0A8   220 0001:0005B0B6   222 0001:0005B0D5   224 0001:0005B119
   226 0001:0005B146   229 0001:0005B150   230 0001:0005B15C   232 0001:0005B17B
   237 0001:0005B180   238 0001:0005B189   239 0001:0005B197   249 0001:0005B1C0
   250 0001:0005B1E5   251 0001:0005B202   253 0001:0005B218   254 0001:0005B23B
   255 0001:0005B254   256 0001:0005B274   251 0001:0005B277   257 0001:0005B27C
   258 0001:0005B289   260 0001:0005B299   261 0001:0005B2A7   262 0001:0005B2BE
   266 0001:0005B2D1   267 0001:0005B2D8   268 0001:0005B2E0   269 0001:0005B2E7
   270 0001:0005B2EE   271 0001:0005B2F9   272 0001:0005B302   273 0001:0005B308
   274 0001:0005B30F   275 0001:0005B315   276 0001:0005B31D   278 0001:0005B323
   281 0001:0005B367   286 0001:0005B378   287 0001:0005B381   288 0001:0005B38F
   291 0001:0005B398   292 0001:0005B3A4   293 0001:0005B3AD   295 0001:0005B3C7
   296 0001:0005B3D7   299 0001:0005B3DC   300 0001:0005B3E3   301 0001:0005B3FD
   304 0001:0005B404   305 0001:0005B40B   307 0001:0005B42D   310 0001:0005B430
   311 0001:0005B43C   312 0001:0005B445   314 0001:0005B45F   315 0001:0005B471
   320 0001:0005B478   321 0001:0005B493   322 0001:0005B4B7   325 0001:0005B4BC
   326 0001:0005B4E9   327 0001:0005B50E   332 0001:0005B514   333 0001:0005B541
   334 0001:0005B549   335 0001:0005B560   336 0001:0005B56E   337 0001:0005B57C
   338 0001:0005B591   340 0001:0005B5B8   342 0001:0005B5E5   351 0001:0005B5F0
   352 0001:0005B611   353 0001:0005B61C   354 0001:0005B627   356 0001:0005B62D
   357 0001:0005B63D   358 0001:0005B64B   360 0001:0005B671   362 0001:0005B681
   363 0001:0005B68F   365 0001:0005B6C2   370 0001:0005B6C8   371 0001:0005B6E7
   372 0001:0005B6F3   373 0001:0005B701   375 0001:0005B71B   377 0001:0005B728
   378 0001:0005B734   379 0001:0005B763   403 0001:0005B770   404 0001:0005B798
   405 0001:0005B7A3   406 0001:0005B7B1   409 0001:0005B7BE   410 0001:0005B7C9
   411 0001:0005B7CF   413 0001:0005B7EE   415 0001:0005B818   421 0001:0005B848
   422 0001:0005B859   423 0001:0005B86C   424 0001:0005B876   425 0001:0005B885
   426 0001:0005B893   427 0001:0005B89C   428 0001:0005B8A4   433 0001:0005B8AC
   434 0001:0005B8AF   435 0001:0005B8BF   436 0001:0005B8C9   437 0001:0005B8E1
   438 0001:0005B8F5   439 0001:0005B910   440 0001:0005B925   442 0001:0005B988
   442 0001:0005B98F

Bound resource files

StringsEdit.dfm
ValueEdit.dfm
StrEdit.dfm
DeskForm.dfm
JoinDock.dfm
DockForm.dfm
BaseDock.dfm
TabDock.dfm
ToolForm.dfm
DockToolForm.dfm
PicEdit.dfm
DsnCmds.dfm
DMForm.dfm
ToolWnds.dfm
ColnEdit.dfm
WCtlForm.dfm
MtSvDlg.dfm
MnuSelct.dfm
MtDeDlg.dfm
MtInDlg.dfm
MnuBuild.dfm
designide.res
C:\DOCUME~1\~storm\LOCALS~1\Temp\dtf70D2.tmp


Program entry point at 0001:0005BDD0
